
hello.elf:     file format elf32-littleriscv
hello.elf
architecture: riscv:rv32, flags 0x00000112:
EXEC_P, HAS_SYMS, D_PAGED
start address 0x000007bc

Program Header:
0x70000003 off    0x00026bee vaddr 0x00000000 paddr 0x00000000 align 2**0
         filesz 0x00000025 memsz 0x00000000 flags r--
    LOAD off    0x00001000 vaddr 0x00000000 paddr 0x00000000 align 2**12
         filesz 0x00000020 memsz 0x00000020 flags r-x
    LOAD off    0x00001020 vaddr 0x00000020 paddr 0x00000020 align 2**12
         filesz 0x00023fc8 memsz 0x00023fc8 flags r-x
    LOAD off    0x00024fe8 vaddr 0x00023fe8 paddr 0x00025bd8 align 2**12
         filesz 0x00001bf4 memsz 0x00001bf4 flags rw-
    LOAD off    0x000007c8 vaddr 0x000277c8 paddr 0x000277c8 align 2**12
         filesz 0x00000000 memsz 0x00006a0c flags rw-

Sections:
Idx Name          Size      VMA       LMA       File off  Algn
  0 .entry        00000020  00000000  00000000  00001000  2**5
                  CONTENTS, ALLOC, LOAD, READONLY, CODE
  1 .exceptions   0000029c  00000020  00000020  00001020  2**2
                  CONTENTS, ALLOC, LOAD, READONLY, CODE
  2 .text         00022ad0  000002bc  000002bc  000012bc  2**2
                  CONTENTS, ALLOC, LOAD, READONLY, CODE
  3 .rodata       00001258  00022d90  00022d90  00023d90  2**4
                  CONTENTS, ALLOC, LOAD, READONLY, DATA
  4 .rwdata       00001bf0  00023fe8  00025bd8  00024fe8  2**3
                  CONTENTS, ALLOC, LOAD, DATA
  5 .init_array.00000 00000004  00025bd8  000277c8  00026bd8  2**2
                  CONTENTS, ALLOC, LOAD, DATA
  6 .bss          00006a0c  000277c8  000277c8  000277c8  2**3
                  ALLOC
  7 .ram          00000000  0002e1d4  0002e1d4  00026bdc  2**0
                  CONTENTS
  8 .comment      00000012  00000000  00000000  00026bdc  2**0
                  CONTENTS, READONLY
  9 .riscv.attributes 00000025  00000000  00000000  00026bee  2**0
                  CONTENTS, READONLY
 10 .debug_aranges 000008e0  00000000  00000000  00026c18  2**3
                  CONTENTS, READONLY, DEBUGGING, OCTETS
 11 .debug_info   000175c7  00000000  00000000  000274f8  2**0
                  CONTENTS, READONLY, DEBUGGING, OCTETS
 12 .debug_abbrev 0000666b  00000000  00000000  0003eabf  2**0
                  CONTENTS, READONLY, DEBUGGING, OCTETS
 13 .debug_line   00018721  00000000  00000000  0004512a  2**0
                  CONTENTS, READONLY, DEBUGGING, OCTETS
 14 .debug_frame  00002340  00000000  00000000  0005d84c  2**2
                  CONTENTS, READONLY, DEBUGGING, OCTETS
 15 .debug_str    00002e2a  00000000  00000000  0005fb8c  2**0
                  CONTENTS, READONLY, DEBUGGING, OCTETS
 16 .debug_line_str 00001ba3  00000000  00000000  000629b6  2**0
                  CONTENTS, READONLY, DEBUGGING, OCTETS
 17 .debug_ranges 00000020  00000000  00000000  00064560  2**3
                  CONTENTS, READONLY, DEBUGGING, OCTETS
 18 .debug_rnglists 00001192  00000000  00000000  00064580  2**0
                  CONTENTS, READONLY, DEBUGGING, OCTETS
 19 .debug_loclists 000072d3  00000000  00000000  00065712  2**0
                  CONTENTS, READONLY, DEBUGGING, OCTETS
SYMBOL TABLE:
00000000 l    d  .entry	00000000 .entry
00000020 l    d  .exceptions	00000000 .exceptions
000002bc l    d  .text	00000000 .text
00022d90 l    d  .rodata	00000000 .rodata
00023fe8 l    d  .rwdata	00000000 .rwdata
00025bd8 l    d  .init_array.00000	00000000 .init_array.00000
000277c8 l    d  .bss	00000000 .bss
0002e1d4 l    d  .ram	00000000 .ram
00000000 l    d  .comment	00000000 .comment
00000000 l    d  .riscv.attributes	00000000 .riscv.attributes
00000000 l    d  .debug_aranges	00000000 .debug_aranges
00000000 l    d  .debug_info	00000000 .debug_info
00000000 l    d  .debug_abbrev	00000000 .debug_abbrev
00000000 l    d  .debug_line	00000000 .debug_line
00000000 l    d  .debug_frame	00000000 .debug_frame
00000000 l    d  .debug_str	00000000 .debug_str
00000000 l    d  .debug_line_str	00000000 .debug_line_str
00000000 l    d  .debug_ranges	00000000 .debug_ranges
00000000 l    d  .debug_rnglists	00000000 .debug_rnglists
00000000 l    d  .debug_loclists	00000000 .debug_loclists
00000000 l    df *ABS*	00000000 crt0.S.obj
0000080c l       .text	00000000 alt_after_alt_main
00000000 l    df *ABS*	00000000 machine_trap.S.obj
00000020 l       .exceptions	00000000 save_registers
00000000 l    df *ABS*	00000000 alt_irq_handler.c
00000000 l    df *ABS*	00000000 hello.c
00000000 l    df *ABS*	00000000 alt_load.c
00000810 l     F .text	00000064 alt_load_section
00000000 l    df *ABS*	00000000 alt_main.c
00000000 l    df *ABS*	00000000 alt_env_lock.c
00025b9c l     O .rwdata	00000004 lockid
0002b9c0 l     O .bss	00000004 locks
00000000 l    df *ABS*	00000000 alt_malloc_lock.c
00025ba0 l     O .rwdata	00000004 lockid
0002b9c4 l     O .bss	00000004 locks
00000000 l    df *ABS*	00000000 os_core.c
000023c0 l     F .text	00000074 OS_InitMisc
00002434 l     F .text	00000078 OS_InitRdyList
0000259c l     F .text	00000144 OS_InitTCBList
000022a0 l     F .text	00000120 OS_InitEventList
000024ac l     F .text	00000078 OS_InitTaskIdle
00002524 l     F .text	00000078 OS_InitTaskStat
00002874 l     F .text	00000080 OS_SchedNew
00000000 l    df *ABS*	00000000 os_dbg_r.c
00000000 l    df *ABS*	00000000 os_flag.c
00004814 l     F .text	0000010c OS_FlagTaskRdy
00004584 l     F .text	00000194 OS_FlagBlock
00000000 l    df *ABS*	00000000 os_mem.c
00000000 l    df *ABS*	00000000 os_mutex.c
00006134 l     F .text	000001bc OSMutex_RdyAtPrio
00000000 l    df *ABS*	00000000 os_q.c
00000000 l    df *ABS*	00000000 os_sem.c
00000000 l    df *ABS*	00000000 os_task.c
00000000 l    df *ABS*	00000000 os_time.c
00000000 l    df *ABS*	00000000 alt_sys_init.c
00023fe8 l     O .rwdata	00001070 jtag_uart
00000000 l    df *ABS*	00000000 altera_avalon_jtag_uart_fd.c
00000000 l    df *ABS*	00000000 altera_avalon_jtag_uart_init.c
0000a218 l     F .text	000002dc altera_avalon_jtag_uart_irq
0000a4f4 l     F .text	0000011c altera_avalon_jtag_uart_timeout
00000000 l    df *ABS*	00000000 altera_avalon_jtag_uart_ioctl.c
00000000 l    df *ABS*	00000000 altera_avalon_jtag_uart_read.c
00000000 l    df *ABS*	00000000 altera_avalon_jtag_uart_write.c
00000000 l    df *ABS*	00000000 os_cpu_a.S.obj
00000060 l       *ABS*	00000000 OSCtxSw_SWITCH_PC
00000000 l    df *ABS*	00000000 alt_alarm_start.c
00000000 l    df *ABS*	00000000 alt_dcache_flush_all.c
00000000 l    df *ABS*	00000000 alt_dev.c
0000afb4 l     F .text	0000002c alt_dev_null_write
00000000 l    df *ABS*	00000000 alt_dev_llist_insert.c
0000b018 l     F .text	00000044 alt_get_errno
00000000 l    df *ABS*	00000000 alt_do_ctors.c
00000000 l    df *ABS*	00000000 alt_do_dtors.c
00000000 l    df *ABS*	00000000 alt_errno.c
00000000 l    df *ABS*	00000000 alt_icache_flush_all.c
00000000 l    df *ABS*	00000000 alt_iic.c
00000000 l    df *ABS*	00000000 alt_iic_isr_register.c
00000000 l    df *ABS*	00000000 alt_io_redirect.c
0000b3b0 l     F .text	000000dc alt_open_fd
00000000 l    df *ABS*	00000000 alt_release_fd.c
00000000 l    df *ABS*	00000000 alt_tick.c
00000000 l    df *ABS*	00000000 intel_niosv_m_irq.c
00000000 l    df *ABS*	00000000 mtimer.c
00000000 l    df *ABS*	00000000 os_cpu_c.c
00000014 l       *ABS*	00000000 OSTCBNext_OFFSET
0000003a l       *ABS*	00000000 OSTCBPrio_OFFSET
00000000 l       *ABS*	00000000 OSTCBStkPtr_OFFSET
00000000 l    df *ABS*	00000000 lib_a-atexit.o
00000000 l    df *ABS*	00000000 lib_a-exit.o
00000000 l    df *ABS*	00000000 lib_a-impure.o
00025200 l     O .rwdata	00000428 impure_data
00000000 l    df *ABS*	00000000 lib_a-memcpy.o
00000000 l    df *ABS*	00000000 lib_a-memset.o
00000000 l    df *ABS*	00000000 lib_a-printf.o
00000000 l    df *ABS*	00000000 lib_a-puts.o
00000000 l    df *ABS*	00000000 lib_a-reent.o
00000000 l    df *ABS*	00000000 lib_a-strlen.o
00000000 l    df *ABS*	00000000 lib_a-sysclose.o
00000000 l    df *ABS*	00000000 lib_a-sysopen.o
00000000 l    df *ABS*	00000000 lib_a-vfprintf.o
0000ed2c l     F .text	000000f8 __sbprintf
000233fc l     O .rodata	00000010 blanks.1
0002340c l     O .rodata	00000010 zeroes.0
00000000 l    df *ABS*	00000000 lib_a-wsetup.o
00000000 l    df *ABS*	00000000 lib_a-__atexit.o
00000000 l    df *ABS*	00000000 lib_a-__call_atexit.o
0000f1a8 l     F .text	00000018 register_fini
00000000 l    df *ABS*	00000000 lib_a-closer.o
00000000 l    df *ABS*	00000000 lib_a-fflush.o
00000000 l    df *ABS*	00000000 lib_a-findfp.o
0000f618 l     F .text	00000040 __fp_lock
0000f658 l     F .text	00000040 __fp_unlock
00000000 l    df *ABS*	00000000 lib_a-fini.o
00000000 l    df *ABS*	00000000 lib_a-freer.o
00000000 l    df *ABS*	00000000 lib_a-fvwrite.o
00000000 l    df *ABS*	00000000 lib_a-fwalk.o
00000000 l    df *ABS*	00000000 lib_a-ldtoa.o
000105d0 l     F .text	00000050 eshdn1
00010620 l     F .text	00000054 eshup1
00010674 l     F .text	000000d0 m16m
00010744 l     F .text	000000bc emovo.isra.0
00010800 l     F .text	00000164 enormlz
00010964 l     F .text	00000198 eshift.part.0
00010afc l     F .text	000000b4 emovi
00010bb0 l     F .text	0000014c ecmp
00010cfc l     F .text	000004b4 emdnorm
000111b0 l     F .text	00000164 eiremain
00011314 l     F .text	00000154 e113toe.isra.0
00011468 l     F .text	00000610 ediv
00011a78 l     F .text	00000520 emul
00023450 l     O .rodata	00000014 ezero
00023464 l     O .rodata	00000104 etens
00023568 l     O .rodata	00000104 emtens
0002366c l     O .rodata	00000014 eone
00023680 l     O .rodata	00000022 bmask
00000000 l    df *ABS*	00000000 lib_a-localeconv.o
00000000 l    df *ABS*	00000000 lib_a-lock.o
00000000 l    df *ABS*	00000000 lib_a-makebuf.o
00000000 l    df *ABS*	00000000 lib_a-mallocr.o
00000000 l    df *ABS*	00000000 lib_a-memchr.o
00000000 l    df *ABS*	00000000 lib_a-memmove-stub.o
00000000 l    df *ABS*	00000000 lib_a-mprec.o
000236a8 l     O .rodata	0000000c p05.0
00000000 l    df *ABS*	00000000 lib_a-openr.o
00000000 l    df *ABS*	00000000 lib_a-reallocr.o
00000000 l    df *ABS*	00000000 lib_a-s_frexp.o
00000000 l    df *ABS*	00000000 lib_a-sbrkr.o
00000000 l    df *ABS*	00000000 lib_a-sprintf.o
00000000 l    df *ABS*	00000000 lib_a-stdio.o
00000000 l    df *ABS*	00000000 lib_a-strcpy.o
00000000 l    df *ABS*	00000000 lib_a-strncpy.o
00000000 l    df *ABS*	00000000 lib_a-svfprintf.o
000239d4 l     O .rodata	00000010 blanks.1
000239e4 l     O .rodata	00000010 zeroes.0
00000000 l    df *ABS*	00000000 lib_a-vfiprintf.o
00018724 l     F .text	00000124 __sprint_r.part.0
00019ca4 l     F .text	000000f8 __sbprintf
00023b60 l     O .rodata	00000010 blanks.1
00023b70 l     O .rodata	00000010 zeroes.0
00000000 l    df *ABS*	00000000 lib_a-writer.o
00000000 l    df *ABS*	00000000 lib_a-assert.o
00000000 l    df *ABS*	00000000 lib_a-callocr.o
00000000 l    df *ABS*	00000000 lib_a-errno.o
00000000 l    df *ABS*	00000000 lib_a-fclose.o
00000000 l    df *ABS*	00000000 lib_a-fiprintf.o
00000000 l    df *ABS*	00000000 lib_a-fputwc.o
00000000 l    df *ABS*	00000000 lib_a-fstatr.o
00000000 l    df *ABS*	00000000 lib_a-isattyr.o
00000000 l    df *ABS*	00000000 lib_a-locale.o
00000000 l    df *ABS*	00000000 lib_a-lseekr.o
00000000 l    df *ABS*	00000000 lib_a-mbtowc_r.o
00000000 l    df *ABS*	00000000 lib_a-readr.o
00000000 l    df *ABS*	00000000 lib_a-strcmp.o
00000000 l    df *ABS*	00000000 lib_a-svfiprintf.o
00023cec l     O .rodata	00000010 blanks.1
00023cfc l     O .rodata	00000010 zeroes.0
00000000 l    df *ABS*	00000000 lib_a-wbuf.o
00000000 l    df *ABS*	00000000 lib_a-wcrtomb.o
00000000 l    df *ABS*	00000000 lib_a-wctomb_r.o
00000000 l    df *ABS*	00000000 lib_a-abort.o
00000000 l    df *ABS*	00000000 lib_a-signal.o
00000000 l    df *ABS*	00000000 lib_a-signalr.o
00000000 l    df *ABS*	00000000 libgcc2.c
00000000 l    df *ABS*	00000000 libgcc2.c
00000000 l    df *ABS*	00000000 divdf3.c
00000000 l    df *ABS*	00000000 muldf3.c
00000000 l    df *ABS*	00000000 eqtf2.c
00000000 l    df *ABS*	00000000 getf2.c
00000000 l    df *ABS*	00000000 letf2.c
00000000 l    df *ABS*	00000000 multf3.c
00000000 l    df *ABS*	00000000 subtf3.c
00000000 l    df *ABS*	00000000 fixtfsi.c
00000000 l    df *ABS*	00000000 floatsitf.c
00000000 l    df *ABS*	00000000 extenddftf2.c
00000000 l    df *ABS*	00000000 trunctfdf2.c
00000000 l    df *ABS*	00000000 muldi3.o
00000000 l    df *ABS*	00000000 div.o
00000000 l    df *ABS*	00000000 libgcc2.c
00000000 l    df *ABS*	00000000 libgcc2.c
00000000 l    df *ABS*	00000000 alt_close.c
00021c94 l     F .text	00000044 alt_get_errno
00000000 l    df *ABS*	00000000 alt_exit.c
00000000 l    df *ABS*	00000000 alt_fstat.c
00021dfc l     F .text	00000044 alt_get_errno
00000000 l    df *ABS*	00000000 alt_getpid.c
00000000 l    df *ABS*	00000000 alt_isatty.c
00021f20 l     F .text	00000044 alt_get_errno
00000000 l    df *ABS*	00000000 alt_kill.c
00022030 l     F .text	00000044 alt_get_errno
00000000 l    df *ABS*	00000000 alt_lseek.c
00022168 l     F .text	00000044 alt_get_errno
00000000 l    df *ABS*	00000000 alt_open.c
0002228c l     F .text	00000044 alt_get_errno
000222d0 l     F .text	000000e8 alt_file_locked
00000000 l    df *ABS*	00000000 alt_read.c
0002251c l     F .text	00000044 alt_get_errno
00000000 l    df *ABS*	00000000 alt_sbrk.c
00025bd4 l     O .rwdata	00000004 heap_end
00000000 l    df *ABS*	00000000 alt_write.c
0002271c l     F .text	00000044 alt_get_errno
00000000 l    df *ABS*	00000000 alt_find_dev.c
00000000 l    df *ABS*	00000000 alt_find_file.c
00000000 l    df *ABS*	00000000 alt_get_fd.c
00000000 l    df *ABS*	00000000 lib_a-sysfstat.o
00015140 g     F .text	000000a4 _mprec_log10
0001524c g     F .text	00000064 __any_on
0001a548 g     F .text	00000058 _isatty_r
00023780 g     O .rodata	00000028 __mprec_tinytens
000008e0 g     F .text	000000e0 alt_main
00015be0 g     F .text	000000b0 strcpy
0000c190 g     F .text	00000094 cleanup_glue
00021f00 g     F .text	00000020 _getpid
0000c058 g     F .text	0000012c _puts_r
0002b940 g     O .bss	00000080 alt_irq
0001a6a4 g     F .text	00000064 _lseek_r
00004fd4 g     F .text	00000100 OS_MemInit
00025bd8 g       *ABS*	00000000 __flash_rwdata_start
00009e24 g     F .text	0000005c OSTimeSet
0001e2f8 g     F .text	00000160 .hidden __getf2
00000f14 g     F .text	0000066c OSEventPendMulti
0002e1d4 g       *ABS*	00000000 __alt_heap_start
0000bbdc g     F .text	00000020 OSTaskCreateHook
0001c4e8 g     F .text	00000060 _kill_r
0001e228 g     F .text	000000d0 .hidden __eqtf2
0000c00c g     F .text	0000004c printf
0002639c g       *ABS*	00000000 __global_pointer$
00023f72 g     O .rodata	00000002 OSMboxEn
0002787c g     O .bss	00000001 __lock___atexit_recursive_mutex
000015d4 g     F .text	00000054 OSIntEnter
0001be4c g     F .text	00000078 _wcrtomb_r
0001c004 g     F .text	0000009c _signal_r
00015b60 g     F .text	00000078 __sseek
0000f724 g     F .text	000001b8 __sinit
0001bcac g     F .text	00000190 __swbuf_r
000096cc g     F .text	000000bc OSTaskRegGetID
00023f82 g     O .rodata	00000002 OSQEn
0001a5a0 g     F .text	0000007c _setlocale_r
0000f698 g     F .text	00000078 __sfmoreglue
00023f6e g     O .rodata	00000002 OSFlagNameEn
00000c38 g     F .text	000000e8 __malloc_unlock
0000bc38 g     F .text	0000001c OSTaskStatHook
00021378 g     F .text	00000198 .hidden __floatsitf
0002780a g     O .bss	00000001 OSLockNesting
00027838 g     O .bss	00000001 OSTaskRegNextAvailID
00023fc4 g     O .rodata	00000002 OSDataSize
00027813 g     O .bss	00000001 OSRunning
00027864 g     O .bss	00000001 __lock___arc4random_mutex
00013eb0 g     F .text	0000010c memmove
0000bc70 g     F .text	0000001c OSInitHookBegin
000002bc g     F .text	0000006c task5
00023fbc g     O .rodata	00000002 OSTmrSize
0000f710 g     F .text	00000014 _cleanup
00013fbc g     F .text	000000b4 _Balloc
00027818 g     O .bss	00000004 OSIdleCtr
00025bc8 g     O .rwdata	00000004 __atexit_recursive_mutex
0001a024 g     F .text	00000008 __errno
0000ae10 g       .text	00000000 OSStartTsk
0001336c g     F .text	00000004 __retarget_lock_close
00002c4c g     F .text	0000037c OS_TCBInit
00000000 g     F .entry	00000004 __reset
0000988c g     F .text	0000003c OS_TaskReturn
00013344 g     F .text	00000008 __localeconv_l
00023fc2 g     O .rodata	00000002 OSTmrWheelTblSize
00000020 g       *ABS*	00000000 __flash_exceptions_start
00023f5e g     O .rodata	00000002 OSEventSize
0001a4e8 g     F .text	00000060 _fstat_r
0002780c g     O .bss	00000001 OSPrioHighRdy
0000bbfc g     F .text	00000020 OSTaskDelHook
00027860 g     O .bss	00000004 errno
00015ad0 g     F .text	00000008 __seofread
0000adf0 g       .text	00000000 OSStartHighRdy
00008520 g     F .text	000001d8 OSTaskCreateExt
000040c0 g     F .text	00000060 OSFlagPendGetFlagsRdy
00023f9e g     O .rodata	00000002 OSTaskStatStkSize
0000320c g     F .text	00000334 OSFlagAccept
0000686c g     F .text	000000b0 OSQFlush
000062f0 g     F .text	00000128 OSQAccept
000277e0 g     O .bss	00000004 alt_argv
00008378 g     F .text	000001a8 OSTaskCreate
0002a940 g     O .bss	00001000 task8_stk
00007e80 g     F .text	000004f8 OSTaskChangePrio
000277ec g     O .bss	00000004 alt_heapsem
00002fc8 g     F .text	00000244 OSDebugInit
000086f8 g     F .text	00000384 OSTaskDel
000050d4 g     F .text	000001b0 OSMutexAccept
00025080 g     O .rwdata	00000180 alt_fd_list
0002be78 g     O .bss	00000140 OSFlagTbl
000020a8 g     F .text	000000ac OS_EventTaskRemove
00022864 g     F .text	00000120 alt_find_dev
0000bd4c g     F .text	000001a4 memcpy
00023f88 g     O .rodata	00000002 OSRdyTblSize
0000f60c g     F .text	0000000c _cleanup_r
00015d3c g     F .text	000029e8 _svfprintf_r
0000b994 g     F .text	000000ac alt_niosv_timer_sc_isr
0000b48c g     F .text	00000078 alt_io_redirect
0000c184 g     F .text	0000000c puts
00000d20 g     F .text	00000118 OSEventNameGet
00023f6c g     O .rodata	00000002 OSFlagMax
00022bd0 g       *ABS*	00000000 __fini_array_end
00021b60 g     F .text	00000048 .hidden __hidden___udivsi3
0000579c g     F .text	000005e0 OSMutexPend
00015098 g     F .text	000000a8 __ratio
00001628 g     F .text	0000010c OSIntExit
00023fa8 g     O .rodata	00000002 OSTCBSize
0002780b g     O .bss	00000001 OSPrioCur
0000a77c g     F .text	000002c8 altera_avalon_jtag_uart_read
0000bfcc g     F .text	00000040 _printf_r
0001e458 g     F .text	00000160 .hidden __letf2
00021b60 g     F .text	00000048 .hidden __udivsi3
0001c0a0 g     F .text	000000c4 _raise_r
00021e40 g     F .text	000000c0 _fstat
00023f8c g     O .rodata	00000002 OSStkWidth
00019e00 g     F .text	00000054 __assert_func
000236b8 g     O .rodata	000000c8 __mprec_tens
00023f80 g     O .rodata	00000002 OSPtrSize
000001b4 g     F .exceptions	00000108 handle_trap
00023f60 g     O .rodata	00000002 OSEventTblSize
0000ad1c g       .text	00000000 OSCtxSw
00027890 g     O .bss	00000004 __malloc_top_pad
0001c548 g     F .text	00000004 _getpid_r
00027828 g     O .bss	00000004 OSTCBList
00009788 g     F .text	00000104 OSTaskRegSet
00027840 g     O .bss	00000004 alt_fd_list_lock
0001334c g     F .text	0000000c _localeconv_r
00000000 g       *ABS*	00000000 __alt_mem_ram
000144ac g     F .text	000000b0 __i2b
0000ff64 g     F .text	00000514 __sfvwrite_r
0001c164 g     F .text	000000e0 __sigtramp_r
0002da2c g     O .bss	000005a0 OSMemTbl
0002782c g     O .bss	00000001 OSTickStepState
00015938 g     F .text	00000058 _sbrk_r
00023f78 g     O .rodata	00000002 OSMemNameEn
00023f84 g     O .rodata	00000002 OSQMax
0000547c g     F .text	00000320 OSMutexDel
0002bfb8 g     O .bss	00000800 OSTaskStatStk
00004c74 g     F .text	000000ec OSMemNameGet
00023f64 g     O .rodata	00000002 OSFlagEn
0001a77c g     F .text	00000064 _read_r
00023fac g     O .rodata	00000002 OSTimeTickHookEn
00004920 g     F .text	000000a0 OS_FlagUnlink
00006d20 g     F .text	00000168 OSQPost
00025bb4 g     O .rwdata	00000004 alt_max_fd
00002734 g     F .text	00000068 OS_MemCopy
0000279c g     F .text	000000d8 OS_Sched
0001a02c g     F .text	00000180 _fclose_r
00004b90 g     F .text	000000e4 OSMemGet
00008d78 g     F .text	00000164 OSTaskNameSet
0000f544 g     F .text	000000c8 fflush
0002788c g     O .bss	00000004 __malloc_max_sbrked_mem
000277f0 g     O .bss	00000004 OSCtxSwCtr
0000bc54 g     F .text	0000001c OSTimeTickHook
00002154 g     F .text	000000f0 OS_EventTaskRemoveMulti
000277c8 g     O .bss	00000004 g_mutex
00001f30 g     F .text	00000178 OS_EventTaskWaitMulti
00014e24 g     F .text	0000011c __b2d
00027870 g     O .bss	00000001 __lock___env_recursive_mutex
00023f86 g     O .rodata	00000002 OSQSize
0001cbd8 g     F .text	00000618 .hidden __umoddi3
0000780c g     F .text	00000224 OSSemPend
00021f64 g     F .text	000000cc _isatty
00023f5c g     O .rodata	00000002 OSEventNameEn
00027884 g     O .bss	00000001 __lock___sinit_recursive_mutex
00023fc8 g     O .rodata	00000004 _global_impure_ptr
00015314 g     F .text	00000570 _realloc_r
00023f70 g     O .rodata	00000002 OSLowestPrio
0002e1d4 g       *ABS*	00000000 __bss_end
0000b234 g     F .text	0000017c alt_iic_isr_register
0000bce4 g     F .text	00000020 OSTCBInitHook
00023fba g     O .rodata	00000002 OSTmrCfgTicksPerSec
0000b610 g     F .text	00000158 alt_tick
0001c54c g     F .text	0000068c .hidden __udivdi3
0000b768 g     F .text	00000024 intel_niosv_m_irq_init
0001a32c g     F .text	000000cc _fputwc_r
000237a8 g     O .rodata	00000028 __mprec_bigtens
00023f58 g     O .rodata	00000002 OSEventEn
00014218 g     F .text	0000013c __s2b
0001bf90 g     F .text	00000018 abort
000223b8 g     F .text	00000164 _open
00022668 g     F .text	000000b4 _sbrk
00014b04 g     F .text	00000058 __mcmp
0000ba40 g     F .text	0000003c alt_niosv_mtimecmp_interrupt_init
0000fa68 g     F .text	0000002c __fp_lock_all
00004718 g     F .text	000000fc OS_FlagInit
0000b578 g     F .text	00000098 alt_alarm_stop
00023f9a g     O .rodata	00000002 OSTaskNameEn
00023f94 g     O .rodata	00000002 OSTaskIdleStkSize
00007440 g     F .text	000000ac OSSemAccept
00004e14 g     F .text	000000dc OSMemPut
000049c0 g     F .text	000001d0 OSMemCreate
00027800 g     O .bss	00000004 OSIdleCtrMax
000000c0 g     F .exceptions	000000f4 alt_irq_handler
00025058 g     O .rwdata	00000028 alt_dev_null
00023faa g     O .rodata	00000002 OSTicksPerSec
0000fac0 g     F .text	0000005c __libc_fini_array
0000bcc4 g     F .text	00000020 OSTaskReturnHook
0000b848 g     F .text	00000084 alt_niosv_mtime_get
000277d0 g     O .bss	00000004 g_msgqueue2
0000c224 g     F .text	00000118 _reclaim_reent
0000ad1c g       .text	00000000 OSIntCtxSw
0000af98 g     F .text	0000001c alt_dcache_flush_all
00014354 g     F .text	00000078 __hi0bits
000095bc g     F .text	00000110 OSTaskRegGet
00027874 g     O .bss	00000001 __lock___malloc_recursive_mutex
00023fb0 g     O .rodata	00000002 OS_TLS_TblSize
00027820 g     O .bss	00000004 OSTCBFreeList
00025bd8 g       *ABS*	00000000 __ram_rwdata_end
00007a30 g     F .text	00000154 OSSemPendAbort
00025bac g     O .rwdata	00000008 alt_dev_list
00023fae g     O .rodata	00000002 OSVersionNbr
0000b824 g     F .text	00000024 alt_timestamp_freq
00023fe8 g       *ABS*	00000000 __ram_rodata_end
00022bc0 g     F .text	00000010 fstat
00021278 g     F .text	00000100 .hidden __fixtfsi
00023f54 g     O .rodata	00000004 OSEndiannessTest
00014824 g     F .text	00000150 __pow5mult
000278d0 g     O .bss	00000070 MessageStorage2
00021ba8 g     F .text	00000010 .hidden __umodsi3
00023f66 g     O .rodata	00000002 OSFlagGrpSize
0002e1d4 g       *ABS*	00000000 end
0000afe0 g     F .text	00000038 alt_dev_reg
00013390 g     F .text	00000004 __retarget_lock_release_recursive
00013384 g     F .text	00000008 __retarget_lock_try_acquire_recursive
0000a0c8 g     F .text	00000150 altera_avalon_jtag_uart_init
000029b8 g     F .text	000001cc OS_TaskStat
000493e0 g       *ABS*	00000000 __alt_stack_pointer
00021c0c g     F .text	00000088 .hidden __clzsi2
0000aa44 g     F .text	000002d8 altera_avalon_jtag_uart_write
0000fa38 g     F .text	0000000c __sfp_lock_acquire
00013dec g     F .text	000000c4 memchr
000026e0 g     F .text	00000054 OS_MemClr
0000ba7c g     F .text	00000160 OSTaskStkInit
00015990 g     F .text	0000006c _sprintf_r
0000fc5c g     F .text	00000308 _free_r
0001a61c g     F .text	0000000c __locale_mb_cur_max
00001c50 g     F .text	000001ac OS_EventTaskRdy
0000f054 g     F .text	00000154 __call_exitprocs
000277fc g     O .bss	00000001 OSCPUUsage
00000488 g     F .text	00000084 SetTaskName
00025bcc g     O .rwdata	00000004 __malloc_sbrk_base
000007bc g     F .text	00000054 _start
00027848 g     O .bss	00000004 _alt_tick_rate
0000691c g     F .text	000002b0 OSQPend
0001337c g     F .text	00000008 __retarget_lock_try_acquire
00009934 g     F .text	00000130 OSTimeDly
000221ac g     F .text	000000e0 _lseek
00014974 g     F .text	00000190 __lshift
0001e458 g     F .text	00000160 .hidden __lttf2
00027850 g     O .bss	00000008 _alt_nticks
0001c304 g     F .text	000000a4 signal
0001e228 g     F .text	000000d0 .hidden __netf2
0000b928 g     F .text	0000006c alt_niosv_mtimecmp_get
00009eb8 g     F .text	0000009c alt_sys_init
00027898 g     O .bss	00000038 MessageStorage
0001a95c g     F .text	000001f8 __ssprint_r
000152b0 g     F .text	00000064 _open_r
0000ef6c g     F .text	000000e8 __register_exitproc
00027814 g     O .bss	00000001 OSTaskCtr
000132cc g     F .text	00000078 _ldcheck
00009a64 g     F .text	00000178 OSTimeDlyHMSM
0001455c g     F .text	000002c8 __multiply
0000a610 g     F .text	0000006c altera_avalon_jtag_uart_close
00023fb6 g     O .rodata	00000002 OSTmrCfgNameEn
00021b34 g     F .text	00000024 .hidden __mulsi3
00023fe8 g       *ABS*	00000000 __ram_rwdata_start
00015c90 g     F .text	000000ac strncpy
00022d90 g       *ABS*	00000000 __ram_rodata_start
0002e1ac g     O .bss	00000028 __malloc_current_mallinfo
00023f5a g     O .rodata	00000002 OSEventMax
00014f40 g     F .text	00000158 __d2b
00007b84 g     F .text	00000118 OSSemPost
00029940 g     O .bss	00001000 task7_stk
000017c4 g     F .text	000000f0 OSSchedUnlock
00027858 g     O .bss	00000008 alt_niosv_timestamp_offset
000277d8 g     O .bss	00000004 alt_niosv_timer_interrupt_handler
00009f54 g     F .text	00000064 altera_avalon_jtag_uart_read_fd
00022ac0 g     F .text	00000100 alt_get_fd
00028940 g     O .bss	00001000 task6_stk
00027830 g     O .bss	00000004 OSMemFreeList
00001934 g     F .text	000000b4 OSStatInit
000044d8 g     F .text	000000ac OSFlagQuery
00021510 g     F .text	00000248 .hidden __extenddftf2
00023f90 g     O .rodata	00000002 OSTaskCreateExtEn
0000f1c0 g     F .text	00000058 _close_r
00001c34 g     F .text	0000001c OS_Dummy
0000a01c g     F .text	00000054 altera_avalon_jtag_uart_close_fd
0002e1d4 g       *ABS*	00000000 __alt_stack_base
0000a070 g     F .text	00000058 altera_avalon_jtag_uart_ioctl_fd
00013370 g     F .text	00000004 __retarget_lock_close_recursive
0000ee24 g     F .text	00000148 __swsetup_r
0002dfcc g     O .bss	000001e0 OSQTbl
0001d1f0 g     F .text	000008a8 .hidden __divdf3
0000f8dc g     F .text	0000015c __sfp
000151e4 g     F .text	00000068 __copybits
00025628 g     O .rwdata	00000408 __malloc_av_
0000fa5c g     F .text	0000000c __sinit_lock_release
0001da98 g     F .text	00000790 .hidden __muldf3
00027824 g     O .bss	00000004 OSTCBHighRdy
00015a74 g     F .text	0000005c __sread
00027834 g     O .bss	00000004 OSQFreeList
00000328 g     F .text	00000090 task6
00022984 g     F .text	0000013c alt_find_file
0000b05c g     F .text	000000a8 alt_dev_llist_insert
00000b04 g     F .text	00000134 __malloc_lock
00022bd0 g       *ABS*	00000000 __fini_array_start
00000e38 g     F .text	000000dc OSEventNameSet
0000f464 g     F .text	000000e0 _fflush_r
00019e68 g     F .text	000001bc _calloc_r
0002780d g     O .bss	00000001 OSRdyGrp
00013378 g     F .text	00000004 __retarget_lock_acquire_recursive
000277c8 g       *ABS*	00000000 __bss_start
00000420 g     F .text	00000068 task8
0000bef0 g     F .text	000000dc memset
0000050c g     F .text	000002b0 main
000277e4 g     O .bss	00000004 alt_envp
00027888 g     O .bss	00000004 __malloc_max_total_mem
00009fb8 g     F .text	00000064 altera_avalon_jtag_uart_write_fd
00013368 g     F .text	00000004 __retarget_lock_init_recursive
0001be3c g     F .text	00000010 __swbuf
00022f64 g     O .rodata	00000100 OSUnMapTbl
00023f8a g     O .rodata	00000002 OSSemEn
00004120 g     F .text	000003b8 OSFlagPost
00015bd8 g     F .text	00000008 __sclose
000493e0 g       *ABS*	00000000 __alt_heap_limit
0001a1ac g     F .text	0000000c fclose
00001dfc g     F .text	00000134 OS_EventTaskWait
0000b78c g     F .text	00000040 alt_timestamp_start
00002b84 g     F .text	000000c8 OS_TaskStatStkChk
00022bd0 g       *ABS*	00000000 __init_array_end
00008a7c g     F .text	00000158 OSTaskDelReq
00013610 g     F .text	000007dc _malloc_r
0001bf60 g     F .text	00000030 __ascii_wctomb
00005284 g     F .text	000001f8 OSMutexCreate
00025bb8 g     O .rwdata	00000004 alt_errno
000018b4 g     F .text	00000080 OSStart
0001a1b8 g     F .text	00000038 _fiprintf_r
0001c3a8 g     F .text	0000005c _init_signal
00000a90 g     F .text	00000074 __env_unlock
00010478 g     F .text	000000a4 _fwalk
00008edc g     F .text	000001f4 OSTaskResume
00004ef0 g     F .text	000000e4 OSMemQuery
00023f9c g     O .rodata	00000002 OSTaskStatEn
0001a708 g     F .text	0000000c _mbtowc_r
00023f76 g     O .rodata	00000002 OSMemMax
00006e88 g     F .text	00000170 OSQPostFront
00021b58 g     F .text	00000084 .hidden __divsi3
00027810 g     O .bss	00000003 OSRdyTbl
00023f50 g     O .rodata	00000002 OSDebugEn
0000fb1c g     F .text	00000140 _malloc_trim_r
00023f68 g     O .rodata	00000002 OSFlagNodeSize
00023fb4 g     O .rodata	00000002 OSTmrCfgMax
0001a7e0 g     F .text	0000017c strcmp
00006418 g     F .text	000001c4 OSQCreate
00008bd4 g     F .text	000001a4 OSTaskNameGet
00022d90 g       *ABS*	00000000 __flash_rodata_start
00006ff8 g     F .text	00000208 OSQPostOpt
000019e8 g     F .text	00000228 OSTimeTick
00023f98 g     O .rodata	00000002 OSTaskMax
000074ec g     F .text	000000e0 OSSemCreate
00023fc0 g     O .rodata	00000002 OSTmrWheelSize
00019c90 g     F .text	00000014 vfiprintf
00013364 g     F .text	00000004 __retarget_lock_init
00005fd0 g     F .text	00000164 OSMutexQuery
0001e5b8 g     F .text	0000151c .hidden __multf3
00023f92 g     O .rodata	00000002 OSTaskDelEn
00007c9c g     F .text	00000108 OSSemQuery
000065dc g     F .text	00000290 OSQDel
00006bcc g     F .text	00000154 OSQPendAbort
00009e80 g     F .text	00000038 alt_irq_init
0000b504 g     F .text	00000074 alt_release_fd
000159fc g     F .text	00000078 sprintf
00023e50 g     O .rodata	00000100 .hidden __clz_tab
00027894 g     O .bss	00000004 _PathLocale
0000bd04 g     F .text	00000014 atexit
00019d9c g     F .text	00000064 _write_r
00001734 g     F .text	00000090 OSSchedLock
0001a628 g     F .text	0000007c setlocale
00003540 g     F .text	00000104 OSFlagCreate
00025bc4 g     O .rwdata	00000004 _impure_ptr
000277dc g     O .bss	00000004 alt_argc
0000f218 g     F .text	0000024c __sflush_r
0000b164 g     F .text	00000060 _do_dtors
00023f62 g     O .rodata	00000002 OSEventMultiEn
0001e2f8 g     F .text	00000160 .hidden __gttf2
0001ab54 g     F .text	00001158 _svfiprintf_r
000003b8 g     F .text	00000068 task7
00003644 g     F .text	00000254 OSFlagDel
000277f4 g     O .bss	00000004 OSEventFreeList
0001a714 g     F .text	00000068 __ascii_mbtowc
0001fad4 g     F .text	000017a4 .hidden __subtf3
00014dbc g     F .text	00000068 __ulp
00003ab0 g     F .text	00000610 OSFlagPend
00023fb2 g     O .rodata	00000002 OSTmrEn
0000fa94 g     F .text	0000002c __fp_unlock_all
00025ba4 g     O .rwdata	00000008 alt_fs_list
0000bc8c g     F .text	0000001c OSInitHookEnd
00000020 g       *ABS*	00000000 __ram_exceptions_start
00023fa6 g     O .rodata	00000002 OSTCBPrioTblMax
00013358 g     F .text	0000000c localeconv
0000b7cc g     F .text	00000058 alt_timestamp
00013538 g     F .text	000000d8 __swhatbuf_r
00023fa0 g     O .rodata	00000002 OSTaskStatStkChkEn
0000b1e0 g     F .text	00000054 alt_ic_isr_register
00023f74 g     O .rodata	00000002 OSMemEn
00000020 g       .exceptions	00000000 trap_vector
00023f7e g     O .rodata	00000002 OSMutexEn
00022760 g     F .text	00000104 _write
00025bd8 g       *ABS*	00000000 _edata
0002e1d4 g       *ABS*	00000000 _end
00027809 g     O .bss	00000001 OSIntNesting
0001a238 g     F .text	000000f4 __fputwc
000002bc g       *ABS*	00000000 __ram_exceptions_end
00027878 g     O .bss	00000001 __lock___at_quick_exit_mutex
0000a67c g     F .text	00000100 altera_avalon_jtag_uart_ioctl
00009bdc g     F .text	000001ec OSTimeDlyResume
000039c0 g     F .text	000000f0 OSFlagNameSet
00023fa4 g     O .rodata	00000002 OSTaskRegTblSize
000090d0 g     F .text	000001b8 OSTaskStkChk
00023f7a g     O .rodata	00000002 OSMemSize
00015ad8 g     F .text	00000088 __swrite
00025bd0 g     O .rwdata	00000004 __malloc_trim_threshold
0002781c g     O .bss	00000004 OSTCBCur
0000bd18 g     F .text	00000034 exit
0001a1f0 g     F .text	00000048 fiprintf
00018860 g     F .text	00001430 _vfiprintf_r
00005d7c g     F .text	00000254 OSMutexPost
0001051c g     F .text	000000b4 _fwalk_reent
00023f7c g     O .rodata	00000002 OSMemTblSize
00014b5c g     F .text	00000260 __mdiff
00021bdc g     F .text	00000030 .hidden __modsi3
00022074 g     F .text	000000f4 _kill
000277cc g     O .bss	00000004 g_msgqueue
000493e0 g       *ABS*	00000000 __alt_data_end
0000fa44 g     F .text	0000000c __sfp_lock_release
00001580 g     F .text	00000054 OSInit
0000948c g     F .text	00000130 OSTaskQuery
00011f98 g     F .text	00001334 _ldtoa_r
00007350 g     F .text	000000f0 OS_QInit
000028f4 g     F .text	00000060 OS_StrLen
00004d60 g     F .text	000000b4 OSMemNameSet
00023d0c g     O .rodata	00000101 _ctype_
00022560 g     F .text	00000108 _read
00022bd0 g       *ABS*	00000000 __init_array_start
00013374 g     F .text	00000004 __retarget_lock_acquire
00023f96 g     O .rodata	00000002 OSTaskProfileEn
0001338c g     F .text	00000004 __retarget_lock_release
0002783c g     O .bss	00000004 OSTime
0002c7b8 g     O .bss	00000800 OSTaskIdleStk
00021db8 g     F .text	00000044 _exit
0000ae30 g     F .text	00000168 alt_alarm_start
00003898 g     F .text	00000128 OSFlagNameGet
00009dc8 g     F .text	0000005c OSTimeGet
00027868 g     O .bss	00000001 __lock___dd_hash_mutex
00013394 g     F .text	000001a4 __smakebuf_r
0002786c g     O .bss	00000001 __lock___tz_mutex
0000c33c g     F .text	0000008c strlen
0001bfa8 g     F .text	0000005c _init_signal_r
0000c3d4 g     F .text	00000048 open
0000bc1c g     F .text	0000001c OSTaskSwHook
0002b9c8 g     O .bss	000004b0 OSEventTbl
0002d00c g     O .bss	00000a20 OSTCBTbl
00007da4 g     F .text	000000dc OSSemSet
00019e54 g     F .text	00000014 __assert
00018848 g     F .text	00000018 __sprint_r
0000b1c4 g     F .text	0000001c alt_icache_flush_all
0000b8cc g     F .text	0000005c alt_niosv_mtimecmp_set
000075cc g     F .text	00000240 OSSemDel
000277f8 g     O .bss	00000004 OSFlagFreeList
00027808 g     O .bss	00000001 OSStatRdy
0002cfb8 g     O .bss	00000054 OSTCBPrioTbl
0001bf54 g     F .text	0000000c _wctomb_r
000009c0 g     F .text	000000d0 __env_lock
00023fa2 g     O .rodata	00000002 OSTaskSwHookEn
0000c41c g     F .text	000028fc _vfprintf_r
000143cc g     F .text	000000e0 __lo0bits
00025bbc g     O .rwdata	00000008 alt_alarm_list
00023f6a g     O .rodata	00000002 OSFlagWidth
0000b104 g     F .text	00000060 _do_ctors
0001c404 g     F .text	000000e4 __sigtramp
0001bec4 g     F .text	00000090 wcrtomb
00015884 g     F .text	000000b4 frexp
0000c3c8 g     F .text	0000000c close
00027940 g     O .bss	00001000 task5_stk
000277e8 g     O .bss	00000004 alt_envsem
00027804 g     O .bss	00000004 OSIdleCtrRun
00025a30 g     O .rwdata	0000016c __global_locale
00001c10 g     F .text	00000024 OSVersion
00023fb8 g     O .rodata	00000002 OSTmrCfgWheelSize
00000874 g     F .text	0000006c alt_load
000098c8 g     F .text	0000006c OS_TaskStkClr
00023f8e g     O .rodata	00000002 OSTaskCreateEn
0000ed18 g     F .text	00000014 vfprintf
000277d4 g     O .bss	00000004 alt_niosv_software_interrupt_handler
00021758 g     F .text	000003dc .hidden __trunctfdf2
00027880 g     O .bss	00000001 __lock___sfp_recursive_mutex
00002244 g     F .text	0000005c OS_EventWaitListInit
0001a3f8 g     F .text	000000f0 fputwc
0001c244 g     F .text	000000c0 raise
00021cd8 g     F .text	000000e0 _close
0000bca8 g     F .text	0000001c OSTaskIdleHook
0000fa50 g     F .text	0000000c __sinit_lock_acquire
00014094 g     F .text	00000184 __multadd
00014070 g     F .text	00000024 _Bfree
00009288 g     F .text	00000204 OSTaskSuspend
00002954 g     F .text	00000064 OS_TaskIdle
00023fbe g     O .rodata	00000002 OSTmrTblSize
00007200 g     F .text	00000150 OSQQuery



Disassembly of section .entry:

00000000 <__reset>:
 * Jump to the _start entry point in the .text section if reset code
 * is allowed or if optimizing for RTL simulation.
 */

    /* Jump to the _start entry point in the .text section. */
    tail _start
   0:	7bc0006f          	j	7bc <_start>
	...

Disassembly of section .exceptions:

00000020 <trap_vector>:
#endif /* ALT_EXCEPTION_STACK */

save_registers:
    /* Save caller-saved registers on the stack */
#if ABBOTTSLAKE_NUM_GPR == 32
    addi sp, sp, -16 * 4
  20:	fc010113          	add	sp,sp,-64
    sw a6, 10 * 4(sp)
  24:	03012423          	sw	a6,40(sp)
    sw a7, 11 * 4(sp)
  28:	03112623          	sw	a7,44(sp)
    sw t3, 12 * 4(sp)
  2c:	03c12823          	sw	t3,48(sp)
    sw t4, 13 * 4(sp)
  30:	03d12a23          	sw	t4,52(sp)
    sw t5, 14 * 4(sp)
  34:	03e12c23          	sw	t5,56(sp)
    sw t6, 15 * 4(sp)
  38:	03f12e23          	sw	t6,60(sp)
#else // 16 (RV32E)
    addi sp, sp, -10 * 4
#endif
    sw ra,  0 * 4(sp)
  3c:	00112023          	sw	ra,0(sp)
    sw t0,  1 * 4(sp)
  40:	00512223          	sw	t0,4(sp)
    sw t1,  2 * 4(sp)
  44:	00612423          	sw	t1,8(sp)
    sw t2,  3 * 4(sp)
  48:	00712623          	sw	t2,12(sp)
    sw a0,  4 * 4(sp)
  4c:	00a12823          	sw	a0,16(sp)
    sw a1,  5 * 4(sp)
  50:	00b12a23          	sw	a1,20(sp)
    sw a2,  6 * 4(sp)
  54:	00c12c23          	sw	a2,24(sp)
    sw a3,  7 * 4(sp)
  58:	00d12e23          	sw	a3,28(sp)
    sw a4,  8 * 4(sp)
  5c:	02e12023          	sw	a4,32(sp)
    sw a5,  9 * 4(sp)
  60:	02f12223          	sw	a5,36(sp)

    
    /* Call handle_trap to dispatch the correct handler, if available */
    csrr a0, mcause
  64:	34202573          	csrr	a0,mcause
    csrr a1, mepc
  68:	341025f3          	csrr	a1,mepc
    csrr a2, mtval
  6c:	34302673          	csrr	a2,mtval
    jal handle_trap
  70:	144000ef          	jal	1b4 <handle_trap>
    csrw mepc, a0
  74:	34151073          	csrw	mepc,a0

    /* Restore caller-saved registers */
    lw ra,  0 * 4(sp)
  78:	00012083          	lw	ra,0(sp)
    lw t0,  1 * 4(sp)
  7c:	00412283          	lw	t0,4(sp)
    lw t1,  2 * 4(sp)
  80:	00812303          	lw	t1,8(sp)
    lw t2,  3 * 4(sp)
  84:	00c12383          	lw	t2,12(sp)
    lw a0,  4 * 4(sp)
  88:	01012503          	lw	a0,16(sp)
    lw a1,  5 * 4(sp)
  8c:	01412583          	lw	a1,20(sp)
    lw a2,  6 * 4(sp)
  90:	01812603          	lw	a2,24(sp)
    lw a3,  7 * 4(sp)
  94:	01c12683          	lw	a3,28(sp)
    lw a4,  8 * 4(sp)
  98:	02012703          	lw	a4,32(sp)
    lw a5,  9 * 4(sp)
  9c:	02412783          	lw	a5,36(sp)
#if ABBOTTSLAKE_NUM_GPR == 32
    lw a6, 10 * 4(sp)
  a0:	02812803          	lw	a6,40(sp)
    lw a7, 11 * 4(sp)
  a4:	02c12883          	lw	a7,44(sp)
    lw t3, 12 * 4(sp)
  a8:	03012e03          	lw	t3,48(sp)
    lw t4, 13 * 4(sp)
  ac:	03412e83          	lw	t4,52(sp)
    lw t5, 14 * 4(sp)
  b0:	03812f03          	lw	t5,56(sp)
    lw t6, 15 * 4(sp)
  b4:	03c12f83          	lw	t6,60(sp)
    addi sp, sp, 16 * 4
  b8:	04010113          	add	sp,sp,64
    lw s0, 0(sp)
    lw s1, 4(sp)
    addi sp, sp, 8
#endif

    mret
  bc:	30200073          	mret

000000c0 <alt_irq_handler>:
 * This means that if there is never a call to alt_irq_register() then
 * this function will not get linked in to the executable. This is acceptable
 * since if no handler is ever registered, then an interrupt can never occur.
 */
void alt_irq_handler (void)
{
  c0:	fd010113          	add	sp,sp,-48
  c4:	02112623          	sw	ra,44(sp)
  c8:	02812423          	sw	s0,40(sp)
  cc:	03010413          	add	s0,sp,48
    alt_u32 i;

    /*
     * Notify the operating system that we are at interrupt level.
     */  
    ALT_OS_INT_ENTER();
  d0:	504010ef          	jal	15d4 <OSIntEnter>
alt_irq_pending(void)
{
    alt_u32 active;
    alt_u32 enabled;

    ABBOTTS_LAKE_READ_CSR(ABBOTTS_LAKE_MIP_CSR, active);
  d4:	344027f3          	csrr	a5,mip
  d8:	fef42023          	sw	a5,-32(s0)
    ABBOTTS_LAKE_READ_CSR(ABBOTTS_LAKE_MIE_CSR, enabled);
  dc:	304027f3          	csrr	a5,mie
  e0:	fcf42e23          	sw	a5,-36(s0)

    // Since this is used by alt_irq_handler, we want to only process the upper 16-bits
    // --> the interrupt lines connected via Platform Designer...
    return (active & enabled) >> 16;
  e4:	fe042703          	lw	a4,-32(s0)
  e8:	fdc42783          	lw	a5,-36(s0)
  ec:	00f777b3          	and	a5,a4,a5
  f0:	0107d793          	srl	a5,a5,0x10
     * reduced by finding out which interrupts are pending as late as possible.
     * Consider the case where the high priority interupt is asserted during
     * the interrupt entry sequence for a lower priority interrupt to see why
     * this is the case.
     */
    active = alt_irq_pending();
  f4:	fef42623          	sw	a5,-20(s0)

    do
    {
        i = 0;
  f8:	fe042223          	sw	zero,-28(s0)
        mask = 1;
  fc:	00100793          	li	a5,1
 100:	fef42423          	sw	a5,-24(s0)
         * called to clear the interrupt condition.
         */

        do
        {
            if (active & mask)
 104:	fec42703          	lw	a4,-20(s0)
 108:	fe842783          	lw	a5,-24(s0)
 10c:	00f777b3          	and	a5,a4,a5
 110:	06078263          	beqz	a5,174 <alt_irq_handler+0xb4>
            {
                alt_irq[i].handler(alt_irq[i].context); 
 114:	0002c7b7          	lui	a5,0x2c
 118:	94078713          	add	a4,a5,-1728 # 2b940 <alt_irq>
 11c:	fe442783          	lw	a5,-28(s0)
 120:	00379793          	sll	a5,a5,0x3
 124:	00f707b3          	add	a5,a4,a5
 128:	0007a703          	lw	a4,0(a5)
 12c:	0002c7b7          	lui	a5,0x2c
 130:	94078693          	add	a3,a5,-1728 # 2b940 <alt_irq>
 134:	fe442783          	lw	a5,-28(s0)
 138:	00379793          	sll	a5,a5,0x3
 13c:	00f687b3          	add	a5,a3,a5
 140:	0047a783          	lw	a5,4(a5)
 144:	00078513          	mv	a0,a5
 148:	000700e7          	jalr	a4
                break;
 14c:	00000013          	nop
    ABBOTTS_LAKE_READ_CSR(ABBOTTS_LAKE_MIP_CSR, active);
 150:	344027f3          	csrr	a5,mip
 154:	fcf42c23          	sw	a5,-40(s0)
    ABBOTTS_LAKE_READ_CSR(ABBOTTS_LAKE_MIE_CSR, enabled);
 158:	304027f3          	csrr	a5,mie
 15c:	fcf42a23          	sw	a5,-44(s0)
    return (active & enabled) >> 16;
 160:	fd842703          	lw	a4,-40(s0)
 164:	fd442783          	lw	a5,-44(s0)
 168:	00f777b3          	and	a5,a4,a5
 16c:	0107d793          	srl	a5,a5,0x10
 170:	0200006f          	j	190 <alt_irq_handler+0xd0>
            }
            
            mask <<= 1;
 174:	fe842783          	lw	a5,-24(s0)
 178:	00179793          	sll	a5,a5,0x1
 17c:	fef42423          	sw	a5,-24(s0)
            i++;
 180:	fe442783          	lw	a5,-28(s0)
 184:	00178793          	add	a5,a5,1
 188:	fef42223          	sw	a5,-28(s0)
            if (active & mask)
 18c:	f79ff06f          	j	104 <alt_irq_handler+0x44>
            
        } while (1);

        active = alt_irq_pending();
 190:	fef42623          	sw	a5,-20(s0)
    
    } while (active);
 194:	fec42783          	lw	a5,-20(s0)
 198:	f60790e3          	bnez	a5,f8 <alt_irq_handler+0x38>

    /*
     * Notify the operating system that interrupt processing is complete.
     */ 

    ALT_OS_INT_EXIT();
 19c:	48c010ef          	jal	1628 <OSIntExit>
}
 1a0:	00000013          	nop
 1a4:	02c12083          	lw	ra,44(sp)
 1a8:	02812403          	lw	s0,40(sp)
 1ac:	03010113          	add	sp,sp,48
 1b0:	00008067          	ret

000001b4 <handle_trap>:
{
 1b4:	fd010113          	add	sp,sp,-48
 1b8:	02112623          	sw	ra,44(sp)
 1bc:	02812423          	sw	s0,40(sp)
 1c0:	03010413          	add	s0,sp,48
 1c4:	fca42e23          	sw	a0,-36(s0)
 1c8:	fcb42c23          	sw	a1,-40(s0)
 1cc:	fcc42a23          	sw	a2,-44(s0)
    is_irq = (cause & ABBOTTS_LAKE_MCAUSE_INTERRUPT_MASK);
 1d0:	fdc42703          	lw	a4,-36(s0)
 1d4:	800007b7          	lui	a5,0x80000
 1d8:	00f777b3          	and	a5,a4,a5
 1dc:	fef42623          	sw	a5,-20(s0)
    exception_code = (cause & ~ABBOTTS_LAKE_MCAUSE_INTERRUPT_MASK);
 1e0:	fdc42703          	lw	a4,-36(s0)
 1e4:	800007b7          	lui	a5,0x80000
 1e8:	fff78793          	add	a5,a5,-1 # 7fffffff <__alt_data_end+0x7ffb6c1f>
 1ec:	00f777b3          	and	a5,a4,a5
 1f0:	fef42423          	sw	a5,-24(s0)
    if (is_irq) {
 1f4:	fec42783          	lw	a5,-20(s0)
 1f8:	08078863          	beqz	a5,288 <handle_trap+0xd4>
        switch (exception_code) {
 1fc:	fe842703          	lw	a4,-24(s0)
 200:	00300793          	li	a5,3
 204:	04f70063          	beq	a4,a5,244 <handle_trap+0x90>
 208:	fe842703          	lw	a4,-24(s0)
 20c:	00700793          	li	a5,7
 210:	06f71263          	bne	a4,a5,274 <handle_trap+0xc0>
                if (alt_niosv_timer_interrupt_handler) {
 214:	000277b7          	lui	a5,0x27
 218:	7d87a783          	lw	a5,2008(a5) # 277d8 <alt_niosv_timer_interrupt_handler>
 21c:	06078a63          	beqz	a5,290 <handle_trap+0xdc>
                    ALT_OS_INT_ENTER();
 220:	3b4010ef          	jal	15d4 <OSIntEnter>
                    alt_niosv_timer_interrupt_handler(cause, epc, tval);
 224:	000277b7          	lui	a5,0x27
 228:	7d87a783          	lw	a5,2008(a5) # 277d8 <alt_niosv_timer_interrupt_handler>
 22c:	fd442603          	lw	a2,-44(s0)
 230:	fd842583          	lw	a1,-40(s0)
 234:	fdc42503          	lw	a0,-36(s0)
 238:	000780e7          	jalr	a5
                    ALT_OS_INT_EXIT();
 23c:	3ec010ef          	jal	1628 <OSIntExit>
                break;
 240:	0500006f          	j	290 <handle_trap+0xdc>
                if (alt_niosv_software_interrupt_handler) {
 244:	000277b7          	lui	a5,0x27
 248:	7d47a783          	lw	a5,2004(a5) # 277d4 <alt_niosv_software_interrupt_handler>
 24c:	04078663          	beqz	a5,298 <handle_trap+0xe4>
                    ALT_OS_INT_ENTER();
 250:	384010ef          	jal	15d4 <OSIntEnter>
                    alt_niosv_software_interrupt_handler(cause, epc, tval);
 254:	000277b7          	lui	a5,0x27
 258:	7d47a783          	lw	a5,2004(a5) # 277d4 <alt_niosv_software_interrupt_handler>
 25c:	fd442603          	lw	a2,-44(s0)
 260:	fd842583          	lw	a1,-40(s0)
 264:	fdc42503          	lw	a0,-36(s0)
 268:	000780e7          	jalr	a5
                    ALT_OS_INT_EXIT();
 26c:	3bc010ef          	jal	1628 <OSIntExit>
                break;
 270:	0280006f          	j	298 <handle_trap+0xe4>
                if (exception_code >= 16) {
 274:	fe842703          	lw	a4,-24(s0)
 278:	00f00793          	li	a5,15
 27c:	02e7f263          	bgeu	a5,a4,2a0 <handle_trap+0xec>
                    alt_irq_handler();
 280:	e41ff0ef          	jal	c0 <alt_irq_handler>
                break;
 284:	01c0006f          	j	2a0 <handle_trap+0xec>
            ABBOTTS_LAKE_EBREAK();
 288:	00100073          	ebreak
 28c:	0180006f          	j	2a4 <handle_trap+0xf0>
                break;
 290:	00000013          	nop
 294:	0100006f          	j	2a4 <handle_trap+0xf0>
                break;
 298:	00000013          	nop
 29c:	0080006f          	j	2a4 <handle_trap+0xf0>
                break;
 2a0:	00000013          	nop
    return epc;
 2a4:	fd842783          	lw	a5,-40(s0)
}
 2a8:	00078513          	mv	a0,a5
 2ac:	02c12083          	lw	ra,44(sp)
 2b0:	02812403          	lw	s0,40(sp)
 2b4:	03010113          	add	sp,sp,48
 2b8:	00008067          	ret

Disassembly of section .text:

000002bc <task5>:
}
#endif // 0

#if (MY_QUEUE_LIST_EN > 0u)
void task5(void* pdata)
{
     2bc:	fd010113          	add	sp,sp,-48
     2c0:	02112623          	sw	ra,44(sp)
     2c4:	02812423          	sw	s0,40(sp)
     2c8:	03010413          	add	s0,sp,48
     2cc:	fca42e23          	sw	a0,-36(s0)
	//char msg[20] = "q_task 5";
	int i = 1000;
     2d0:	3e800793          	li	a5,1000
     2d4:	fef42623          	sw	a5,-20(s0)

	pdata = pdata;
	while (1)
	{
		OSQPost(g_msgqueue, (void*)&i);
     2d8:	000277b7          	lui	a5,0x27
     2dc:	7cc7a783          	lw	a5,1996(a5) # 277cc <g_msgqueue>
     2e0:	fec40713          	add	a4,s0,-20
     2e4:	00070593          	mv	a1,a4
     2e8:	00078513          	mv	a0,a5
     2ec:	235060ef          	jal	6d20 <OSQPost>
		printf("Task5 Post: %d \n", i++);
     2f0:	fec42783          	lw	a5,-20(s0)
     2f4:	00178713          	add	a4,a5,1
     2f8:	fee42623          	sw	a4,-20(s0)
     2fc:	00078593          	mv	a1,a5
     300:	000237b7          	lui	a5,0x23
     304:	d9078513          	add	a0,a5,-624 # 22d90 <__flash_rodata_start>
     308:	5050b0ef          	jal	c00c <printf>
		OSTimeDlyHMSM(0, 0, 1, 0);
     30c:	00000693          	li	a3,0
     310:	00100613          	li	a2,1
     314:	00000593          	li	a1,0
     318:	00000513          	li	a0,0
     31c:	748090ef          	jal	9a64 <OSTimeDlyHMSM>
		OSQPost(g_msgqueue, (void*)&i);
     320:	00000013          	nop
     324:	fb5ff06f          	j	2d8 <task5+0x1c>

00000328 <task6>:
	}
}

void task6(void* pdata)
{
     328:	fd010113          	add	sp,sp,-48
     32c:	02112623          	sw	ra,44(sp)
     330:	02812423          	sw	s0,40(sp)
     334:	03010413          	add	s0,sp,48
     338:	fca42e23          	sw	a0,-36(s0)
	INT8U err;
	int i = 0;
     33c:	fe042623          	sw	zero,-20(s0)
	int *data;

	pdata = pdata;
	while (1)
	{
		data = (int*)OSQPend(g_msgqueue, 0, &err);
     340:	000277b7          	lui	a5,0x27
     344:	7cc7a783          	lw	a5,1996(a5) # 277cc <g_msgqueue>
     348:	fe740713          	add	a4,s0,-25
     34c:	00070613          	mv	a2,a4
     350:	00000593          	li	a1,0
     354:	00078513          	mv	a0,a5
     358:	5c4060ef          	jal	691c <OSQPend>
     35c:	fea42423          	sw	a0,-24(s0)
		if (i < NUM_PRINTS_PER_TASK) {
     360:	fec42703          	lw	a4,-20(s0)
     364:	09500793          	li	a5,149
     368:	02e7c063          	blt	a5,a4,388 <task6+0x60>
			printf("Hello from task6: %d\n", i++);
     36c:	fec42783          	lw	a5,-20(s0)
     370:	00178713          	add	a4,a5,1
     374:	fee42623          	sw	a4,-20(s0)
     378:	00078593          	mv	a1,a5
     37c:	000237b7          	lui	a5,0x23
     380:	da478513          	add	a0,a5,-604 # 22da4 <__flash_rodata_start+0x14>
     384:	4890b0ef          	jal	c00c <printf>
		}
		printf("Task6 pend data: %d \n", *data);
     388:	fe842783          	lw	a5,-24(s0)
     38c:	0007a783          	lw	a5,0(a5)
     390:	00078593          	mv	a1,a5
     394:	000237b7          	lui	a5,0x23
     398:	dbc78513          	add	a0,a5,-580 # 22dbc <__flash_rodata_start+0x2c>
     39c:	4710b0ef          	jal	c00c <printf>

		OSTimeDlyHMSM(0, 0, 0, 400);
     3a0:	19000693          	li	a3,400
     3a4:	00000613          	li	a2,0
     3a8:	00000593          	li	a1,0
     3ac:	00000513          	li	a0,0
     3b0:	6b4090ef          	jal	9a64 <OSTimeDlyHMSM>
		data = (int*)OSQPend(g_msgqueue, 0, &err);
     3b4:	f8dff06f          	j	340 <task6+0x18>

000003b8 <task7>:
	}
}

#if (TASK7_PRIORITY > 0u)
void task7(void* pdata)
{
     3b8:	fd010113          	add	sp,sp,-48
     3bc:	02112623          	sw	ra,44(sp)
     3c0:	02812423          	sw	s0,40(sp)
     3c4:	03010413          	add	s0,sp,48
     3c8:	fca42e23          	sw	a0,-36(s0)
	int *data;

	pdata = pdata;
	while (1)
	{
		data = (int*)OSQPend(g_msgqueue, 0, &err);
     3cc:	000277b7          	lui	a5,0x27
     3d0:	7cc7a783          	lw	a5,1996(a5) # 277cc <g_msgqueue>
     3d4:	feb40713          	add	a4,s0,-21
     3d8:	00070613          	mv	a2,a4
     3dc:	00000593          	li	a1,0
     3e0:	00078513          	mv	a0,a5
     3e4:	538060ef          	jal	691c <OSQPend>
     3e8:	fea42623          	sw	a0,-20(s0)
		printf("TASK 7: %d\n", *data);
     3ec:	fec42783          	lw	a5,-20(s0)
     3f0:	0007a783          	lw	a5,0(a5)
     3f4:	00078593          	mv	a1,a5
     3f8:	000237b7          	lui	a5,0x23
     3fc:	dd478513          	add	a0,a5,-556 # 22dd4 <__flash_rodata_start+0x44>
     400:	40d0b0ef          	jal	c00c <printf>

		OSTimeDlyHMSM(0, 0, 0, 500);
     404:	1f400693          	li	a3,500
     408:	00000613          	li	a2,0
     40c:	00000593          	li	a1,0
     410:	00000513          	li	a0,0
     414:	650090ef          	jal	9a64 <OSTimeDlyHMSM>
		data = (int*)OSQPend(g_msgqueue, 0, &err);
     418:	00000013          	nop
     41c:	fb1ff06f          	j	3cc <task7+0x14>

00000420 <task8>:
}
#endif

#if (TASK8_PRIORITY > 0u)
void task8(void* pdata)
{
     420:	fd010113          	add	sp,sp,-48
     424:	02112623          	sw	ra,44(sp)
     428:	02812423          	sw	s0,40(sp)
     42c:	03010413          	add	s0,sp,48
     430:	fca42e23          	sw	a0,-36(s0)
	int *data;

	pdata = pdata;
	while (1)
	{
		data = (int*)OSQPend(g_msgqueue, 0, &err);
     434:	000277b7          	lui	a5,0x27
     438:	7cc7a783          	lw	a5,1996(a5) # 277cc <g_msgqueue>
     43c:	feb40713          	add	a4,s0,-21
     440:	00070613          	mv	a2,a4
     444:	00000593          	li	a1,0
     448:	00078513          	mv	a0,a5
     44c:	4d0060ef          	jal	691c <OSQPend>
     450:	fea42623          	sw	a0,-20(s0)
		printf("TASK 8: %d\n", (int)*data);
     454:	fec42783          	lw	a5,-20(s0)
     458:	0007a783          	lw	a5,0(a5)
     45c:	00078593          	mv	a1,a5
     460:	000237b7          	lui	a5,0x23
     464:	de078513          	add	a0,a5,-544 # 22de0 <__flash_rodata_start+0x50>
     468:	3a50b0ef          	jal	c00c <printf>
		OSTimeDlyHMSM(0, 0, 0, 400);
     46c:	19000693          	li	a3,400
     470:	00000613          	li	a2,0
     474:	00000593          	li	a1,0
     478:	00000513          	li	a0,0
     47c:	5e8090ef          	jal	9a64 <OSTimeDlyHMSM>
		data = (int*)OSQPend(g_msgqueue, 0, &err);
     480:	00000013          	nop
     484:	fb1ff06f          	j	434 <task8+0x14>

00000488 <SetTaskName>:
	}
}
#endif // TASK8_PRIORITY
#endif

void SetTaskName(void) {
     488:	fe010113          	add	sp,sp,-32
     48c:	00112e23          	sw	ra,28(sp)
     490:	00812c23          	sw	s0,24(sp)
     494:	02010413          	add	s0,sp,32
	OSTaskNameSet(TASK2_PRIORITY, (INT8U *)"My Task_2", &err);
	OSTaskNameSet(TASK3_PRIORITY, (INT8U *)(void *)"My Task_3", &err);
	OSTaskNameSet(TASK4_PRIORITY, (INT8U *)"My Task_4", &err);
#endif
#if (MY_QUEUE_LIST_EN > 0u)
	OSTaskNameSet(TASK5_PRIORITY, (INT8U *)(void *)"My Q_Task_5", &err);
     498:	fef40793          	add	a5,s0,-17
     49c:	00078613          	mv	a2,a5
     4a0:	000237b7          	lui	a5,0x23
     4a4:	dec78593          	add	a1,a5,-532 # 22dec <__flash_rodata_start+0x5c>
     4a8:	00600513          	li	a0,6
     4ac:	0cd080ef          	jal	8d78 <OSTaskNameSet>
	OSTaskNameSet(TASK6_PRIORITY, (INT8U *)"My Q_Task_6", &err);
     4b0:	fef40793          	add	a5,s0,-17
     4b4:	00078613          	mv	a2,a5
     4b8:	000237b7          	lui	a5,0x23
     4bc:	df878593          	add	a1,a5,-520 # 22df8 <__flash_rodata_start+0x68>
     4c0:	00700513          	li	a0,7
     4c4:	0b5080ef          	jal	8d78 <OSTaskNameSet>
	OSTaskNameSet(TASK7_PRIORITY, (INT8U *)(void *)"My Q_Task_7", &err);
     4c8:	fef40793          	add	a5,s0,-17
     4cc:	00078613          	mv	a2,a5
     4d0:	000237b7          	lui	a5,0x23
     4d4:	e0478593          	add	a1,a5,-508 # 22e04 <__flash_rodata_start+0x74>
     4d8:	00800513          	li	a0,8
     4dc:	09d080ef          	jal	8d78 <OSTaskNameSet>
	OSTaskNameSet(TASK8_PRIORITY, (INT8U *)"My Q_Task_8", &err);
     4e0:	fef40793          	add	a5,s0,-17
     4e4:	00078613          	mv	a2,a5
     4e8:	000237b7          	lui	a5,0x23
     4ec:	e1078593          	add	a1,a5,-496 # 22e10 <__flash_rodata_start+0x80>
     4f0:	00900513          	li	a0,9
     4f4:	085080ef          	jal	8d78 <OSTaskNameSet>
#endif
}
     4f8:	00000013          	nop
     4fc:	01c12083          	lw	ra,28(sp)
     500:	01812403          	lw	s0,24(sp)
     504:	02010113          	add	sp,sp,32
     508:	00008067          	ret

0000050c <main>:


/* The main function creates tasks and starts multi-tasking */
int main(void)
{
     50c:	fd010113          	add	sp,sp,-48
     510:	02112623          	sw	ra,44(sp)
     514:	02812423          	sw	s0,40(sp)
     518:	03010413          	add	s0,sp,48
	printf("Hello from main...\n");
     51c:	000237b7          	lui	a5,0x23
     520:	e1c78513          	add	a0,a5,-484 # 22e1c <__flash_rodata_start+0x8c>
     524:	4610b0ef          	jal	c184 <puts>
	printf("Task3 -- TOS: %p, BOS: %p\n", &task3_stk[TASK_STACKSIZE-1], &task3_stk[0]);
	printf("Task4 -- TOS: %p, BOS: %p\n", &task4_stk[TASK_STACKSIZE-1], &task4_stk[0]);
#endif
#endif
#if (MY_QUEUE_LIST_EN > 0u)
	printf("Task5 -- TOS: %p, BOS: %p\n", &task5_stk[TASK_STACKSIZE-1], &task5_stk[0]);
     528:	000287b7          	lui	a5,0x28
     52c:	94078613          	add	a2,a5,-1728 # 27940 <task5_stk>
     530:	000297b7          	lui	a5,0x29
     534:	93c78593          	add	a1,a5,-1732 # 2893c <task5_stk+0xffc>
     538:	000237b7          	lui	a5,0x23
     53c:	e3078513          	add	a0,a5,-464 # 22e30 <__flash_rodata_start+0xa0>
     540:	2cd0b0ef          	jal	c00c <printf>
	printf("Task6 -- TOS: %p, BOS: %p\n", &task6_stk[TASK_STACKSIZE-1], &task6_stk[0]);
     544:	000297b7          	lui	a5,0x29
     548:	94078613          	add	a2,a5,-1728 # 28940 <task6_stk>
     54c:	0002a7b7          	lui	a5,0x2a
     550:	93c78593          	add	a1,a5,-1732 # 2993c <task6_stk+0xffc>
     554:	000237b7          	lui	a5,0x23
     558:	e4c78513          	add	a0,a5,-436 # 22e4c <__flash_rodata_start+0xbc>
     55c:	2b10b0ef          	jal	c00c <printf>
#endif /* MY_QUEUE_LIST_EN */
	printf("Stat -- TOS: %p, BOS: %p\n", &OSTaskStatStk[OS_TASK_STAT_STK_SIZE - 1u], &OSTaskStatStk[0]);
     560:	0002c7b7          	lui	a5,0x2c
     564:	fb878613          	add	a2,a5,-72 # 2bfb8 <OSTaskStatStk>
     568:	0002c7b7          	lui	a5,0x2c
     56c:	7b478593          	add	a1,a5,1972 # 2c7b4 <OSTaskStatStk+0x7fc>
     570:	000237b7          	lui	a5,0x23
     574:	e6878513          	add	a0,a5,-408 # 22e68 <__flash_rodata_start+0xd8>
     578:	2950b0ef          	jal	c00c <printf>
	printf("Idle -- TOS: %p, BOS: %p\n", &OSTaskIdleStk[OS_TASK_IDLE_STK_SIZE - 1u], &OSTaskIdleStk[0]);
     57c:	0002c7b7          	lui	a5,0x2c
     580:	7b878613          	add	a2,a5,1976 # 2c7b8 <OSTaskIdleStk>
     584:	0002d7b7          	lui	a5,0x2d
     588:	fb478593          	add	a1,a5,-76 # 2cfb4 <OSTaskIdleStk+0x7fc>
     58c:	000237b7          	lui	a5,0x23
     590:	e8478513          	add	a0,a5,-380 # 22e84 <__flash_rodata_start+0xf4>
     594:	2790b0ef          	jal	c00c <printf>

	INT8U err;

#if (MY_QUEUE_LIST_EN > 0u)
	g_msgqueue = OSQCreate((void**)&MessageStorage[0], MAX_N_MSGS);
     598:	00e00593          	li	a1,14
     59c:	000287b7          	lui	a5,0x28
     5a0:	89878513          	add	a0,a5,-1896 # 27898 <MessageStorage>
     5a4:	675050ef          	jal	6418 <OSQCreate>
     5a8:	00050713          	mv	a4,a0
     5ac:	000277b7          	lui	a5,0x27
     5b0:	7ce7a623          	sw	a4,1996(a5) # 277cc <g_msgqueue>
	if ((void*)0 == g_msgqueue) {
     5b4:	000277b7          	lui	a5,0x27
     5b8:	7cc7a783          	lw	a5,1996(a5) # 277cc <g_msgqueue>
     5bc:	00079863          	bnez	a5,5cc <main+0xc0>
		/* Msg Queue creation failed */
		printf(" Msg Queue creation failed  ***\n");
     5c0:	000237b7          	lui	a5,0x23
     5c4:	ea078513          	add	a0,a5,-352 # 22ea0 <__flash_rodata_start+0x110>
     5c8:	3bd0b0ef          	jal	c184 <puts>
	}
#if (OS_EVENT_NAME_EN > 0u)
	OSEventNameSet(g_msgqueue, (INT8U*)"First Msg Queue Event", &err);
     5cc:	000277b7          	lui	a5,0x27
     5d0:	7cc7a703          	lw	a4,1996(a5) # 277cc <g_msgqueue>
     5d4:	fef40793          	add	a5,s0,-17
     5d8:	00078613          	mv	a2,a5
     5dc:	000237b7          	lui	a5,0x23
     5e0:	ec078593          	add	a1,a5,-320 # 22ec0 <__flash_rodata_start+0x130>
     5e4:	00070513          	mv	a0,a4
     5e8:	051000ef          	jal	e38 <OSEventNameSet>
#endif
#endif // MY_QUEUE_LIST_EN

	g_mutex = OSMutexCreate(MUTEX_PRIORITY, &err);
     5ec:	fef40793          	add	a5,s0,-17
     5f0:	00078593          	mv	a1,a5
     5f4:	00100513          	li	a0,1
     5f8:	48d040ef          	jal	5284 <OSMutexCreate>
     5fc:	00050713          	mv	a4,a0
     600:	000277b7          	lui	a5,0x27
     604:	7ce7a423          	sw	a4,1992(a5) # 277c8 <g_mutex>
#if (OS_EVENT_NAME_EN > 0u)
	OSEventNameSet(g_mutex, (INT8U*)"My Mutex Event", &err);
     608:	000277b7          	lui	a5,0x27
     60c:	7c87a703          	lw	a4,1992(a5) # 277c8 <g_mutex>
     610:	fef40793          	add	a5,s0,-17
     614:	00078613          	mv	a2,a5
     618:	000237b7          	lui	a5,0x23
     61c:	ed878593          	add	a1,a5,-296 # 22ed8 <__flash_rodata_start+0x148>
     620:	00070513          	mv	a0,a4
     624:	015000ef          	jal	e38 <OSEventNameSet>
#endif

#if (MY_QUEUE_LIST_EN > 0u)
	g_msgqueue2 = OSQCreate((void**)&MessageStorage2[0], MAX_N_MSGS + MAX_N_MSGS);
     628:	01c00593          	li	a1,28
     62c:	000287b7          	lui	a5,0x28
     630:	8d078513          	add	a0,a5,-1840 # 278d0 <MessageStorage2>
     634:	5e5050ef          	jal	6418 <OSQCreate>
     638:	00050713          	mv	a4,a0
     63c:	000277b7          	lui	a5,0x27
     640:	7ce7a823          	sw	a4,2000(a5) # 277d0 <g_msgqueue2>
	if ((void*)0 == g_msgqueue2) {
     644:	000277b7          	lui	a5,0x27
     648:	7d07a783          	lw	a5,2000(a5) # 277d0 <g_msgqueue2>
     64c:	00079863          	bnez	a5,65c <main+0x150>
		/* Msg Queue creation failed */
		printf(" Msg Queue creation failed   g_msgqueue2 ***\n");
     650:	000237b7          	lui	a5,0x23
     654:	ee878513          	add	a0,a5,-280 # 22ee8 <__flash_rodata_start+0x158>
     658:	32d0b0ef          	jal	c184 <puts>
	}
#if (OS_EVENT_NAME_EN > 0u)
	OSEventNameSet(g_msgqueue2, (INT8U*)(void *)"My Second MsgQ Event", &err);
     65c:	000277b7          	lui	a5,0x27
     660:	7d07a703          	lw	a4,2000(a5) # 277d0 <g_msgqueue2>
     664:	fef40793          	add	a5,s0,-17
     668:	00078613          	mv	a2,a5
     66c:	000237b7          	lui	a5,0x23
     670:	f1878593          	add	a1,a5,-232 # 22f18 <__flash_rodata_start+0x188>
     674:	00070513          	mv	a0,a4
     678:	7c0000ef          	jal	e38 <OSEventNameSet>
#endif
	int qtask_data = 0;
     67c:	fe042423          	sw	zero,-24(s0)
    }
#endif
#endif // 0

#if (MY_QUEUE_LIST_EN > 0u)
	err = OSTaskCreateExt(task5,
     680:	fe840593          	add	a1,s0,-24
     684:	00012023          	sw	zero,0(sp)
     688:	00000893          	li	a7,0
     68c:	40000813          	li	a6,1024
     690:	000287b7          	lui	a5,0x28
     694:	94078793          	add	a5,a5,-1728 # 27940 <task5_stk>
     698:	00600713          	li	a4,6
     69c:	00600693          	li	a3,6
     6a0:	00029637          	lui	a2,0x29
     6a4:	93c60613          	add	a2,a2,-1732 # 2893c <task5_stk+0xffc>
     6a8:	2bc00513          	li	a0,700
     6ac:	675070ef          	jal	8520 <OSTaskCreateExt>
     6b0:	00050793          	mv	a5,a0
     6b4:	fef407a3          	sb	a5,-17(s0)
			task5_stk,
			TASK_STACKSIZE,
			NULL,
			0);

	err = OSTaskCreateExt(task6,
     6b8:	fe840593          	add	a1,s0,-24
     6bc:	00012023          	sw	zero,0(sp)
     6c0:	00000893          	li	a7,0
     6c4:	40000813          	li	a6,1024
     6c8:	000297b7          	lui	a5,0x29
     6cc:	94078793          	add	a5,a5,-1728 # 28940 <task6_stk>
     6d0:	00700713          	li	a4,7
     6d4:	00700693          	li	a3,7
     6d8:	0002a637          	lui	a2,0x2a
     6dc:	93c60613          	add	a2,a2,-1732 # 2993c <task6_stk+0xffc>
     6e0:	32800513          	li	a0,808
     6e4:	63d070ef          	jal	8520 <OSTaskCreateExt>
     6e8:	00050793          	mv	a5,a0
     6ec:	fef407a3          	sb	a5,-17(s0)
			TASK6_PRIORITY,
			task6_stk,
			TASK_STACKSIZE,
			NULL,
			0);
    if (OS_ERR_NONE != err) {
     6f0:	fef44783          	lbu	a5,-17(s0)
     6f4:	00078863          	beqz	a5,704 <main+0x1f8>
    	printf(" ***** OSTaskCreateExt ERROR ***** \n");
     6f8:	000237b7          	lui	a5,0x23
     6fc:	f3078513          	add	a0,a5,-208 # 22f30 <__flash_rodata_start+0x1a0>
     700:	2850b0ef          	jal	c184 <puts>
    }

#if (TASK7_PRIORITY > 0u)
	err = OSTaskCreateExt(task7,
     704:	fe840593          	add	a1,s0,-24
     708:	00012023          	sw	zero,0(sp)
     70c:	00000893          	li	a7,0
     710:	40000813          	li	a6,1024
     714:	0002a7b7          	lui	a5,0x2a
     718:	94078793          	add	a5,a5,-1728 # 29940 <task7_stk>
     71c:	00800713          	li	a4,8
     720:	00800693          	li	a3,8
     724:	0002b637          	lui	a2,0x2b
     728:	93c60613          	add	a2,a2,-1732 # 2a93c <task7_stk+0xffc>
     72c:	3b800513          	li	a0,952
     730:	5f1070ef          	jal	8520 <OSTaskCreateExt>
     734:	00050793          	mv	a5,a0
     738:	fef407a3          	sb	a5,-17(s0)
			TASK7_PRIORITY,
			task7_stk,
			TASK_STACKSIZE,
			NULL,
			0);
    if (OS_ERR_NONE != err) {
     73c:	fef44783          	lbu	a5,-17(s0)
     740:	00078863          	beqz	a5,750 <main+0x244>
    	printf(" ***** OSTaskCreateExt ERROR ***** \n");
     744:	000237b7          	lui	a5,0x23
     748:	f3078513          	add	a0,a5,-208 # 22f30 <__flash_rodata_start+0x1a0>
     74c:	2390b0ef          	jal	c184 <puts>
    }
#endif

#if (TASK8_PRIORITY > 0u)
	err = OSTaskCreateExt(task8,
     750:	fe840593          	add	a1,s0,-24
     754:	00012023          	sw	zero,0(sp)
     758:	00000893          	li	a7,0
     75c:	40000813          	li	a6,1024
     760:	0002b7b7          	lui	a5,0x2b
     764:	94078793          	add	a5,a5,-1728 # 2a940 <task8_stk>
     768:	00900713          	li	a4,9
     76c:	00900693          	li	a3,9
     770:	0002c637          	lui	a2,0x2c
     774:	93c60613          	add	a2,a2,-1732 # 2b93c <task8_stk+0xffc>
     778:	42000513          	li	a0,1056
     77c:	5a5070ef          	jal	8520 <OSTaskCreateExt>
     780:	00050793          	mv	a5,a0
     784:	fef407a3          	sb	a5,-17(s0)
			TASK8_PRIORITY,
			task8_stk,
			TASK_STACKSIZE,
			NULL,
			0);
    if (OS_ERR_NONE != err) {
     788:	fef44783          	lbu	a5,-17(s0)
     78c:	00078863          	beqz	a5,79c <main+0x290>
    	printf(" ***** OSTaskCreateExt ERROR ***** \n");
     790:	000237b7          	lui	a5,0x23
     794:	f3078513          	add	a0,a5,-208 # 22f30 <__flash_rodata_start+0x1a0>
     798:	1ed0b0ef          	jal	c184 <puts>
    }
#endif
#endif // MY_QUEUE_LIST_EN

    SetTaskName();
     79c:	cedff0ef          	jal	488 <SetTaskName>

	OSStart();
     7a0:	114010ef          	jal	18b4 <OSStart>
	return 0;
     7a4:	00000793          	li	a5,0
}
     7a8:	00078513          	mv	a0,a5
     7ac:	02c12083          	lw	ra,44(sp)
     7b0:	02812403          	lw	s0,40(sp)
     7b4:	03010113          	add	sp,sp,48
     7b8:	00008067          	ret

000007bc <_start>:
    .globl _start
    .type _start, @function
_start:
    /* assume that we are in machine mode on startup */
    /* setup trap to catch anything that goes wrong early in the boot process */
    la t0, trap_vector
     7bc:	00000297          	auipc	t0,0x0
     7c0:	86428293          	add	t0,t0,-1948 # 20 <__flash_exceptions_start>
    csrw mtvec, t0
     7c4:	30529073          	csrw	mtvec,t0

    /* disable all interrupt */
    li t0, 8
     7c8:	00800293          	li	t0,8
    csrc mstatus, t0
     7cc:	3002b073          	csrc	mstatus,t0
    csrw mie, zero
     7d0:	30401073          	csrw	mie,zero
    csrw mip, zero
     7d4:	34401073          	csrw	mip,zero

    .option push
    .option norelax
    la gp, __global_pointer$
     7d8:	00026197          	auipc	gp,0x26
     7dc:	bc418193          	add	gp,gp,-1084 # 2639c <__global_pointer$>

    /*
     * Now that the caches are initialized, set up the stack pointer and global pointer.
     * The values provided by the linker are assumed to be correctly aligned.
     */
    la sp, __alt_stack_pointer
     7e0:	00049117          	auipc	sp,0x49
     7e4:	c0010113          	add	sp,sp,-1024 # 493e0 <__alt_data_end>
    /* Log that the BSS is about to be cleared. */
#ifdef ALT_LOG_ENABLE
    ALT_LOG_PUTS(alt_log_msg_bss)
#endif /* ALT_LOG_ENABLE */

    la t1, __bss_start
     7e8:	00027317          	auipc	t1,0x27
     7ec:	fe030313          	add	t1,t1,-32 # 277c8 <g_mutex>
    la t2, __bss_end
     7f0:	0002e397          	auipc	t2,0x2e
     7f4:	9e438393          	add	t2,t2,-1564 # 2e1d4 <__alt_heap_start>
0:
    sw zero, (t1)
     7f8:	00032023          	sw	zero,0(t1)
    addi t1, t1, 4
     7fc:	00430313          	add	t1,t1,4
    bltu t1, t2, 0b
     800:	fe736ce3          	bltu	t1,t2,7f8 <_start+0x3c>
/*
 * The alt_load() facility is normally used when there is no bootloader.
 * It copies some sections into RAM so it acts like a mini-bootloader.
 */
#ifdef CALL_ALT_LOAD
    call alt_load
     804:	070000ef          	jal	874 <alt_load>
#ifdef ALT_LOG_ENABLE
    ALT_LOG_PUTS(alt_log_msg_alt_main)
#endif /* ALT_LOG_ENABLE */

    /* Call the C entry point. It should never return. */
    call alt_main
     808:	0d8000ef          	jal	8e0 <alt_main>

0000080c <alt_after_alt_main>:

    /* Wait in infinite loop in case alt_main does return. */
alt_after_alt_main:
    j alt_after_alt_main
     80c:	0000006f          	j	80c <alt_after_alt_main>

00000810 <alt_load_section>:
     810:	fe010113          	add	sp,sp,-32
     814:	00812e23          	sw	s0,28(sp)
 */  

void alt_load (void)
{
  /* 
   * Copy the .rwdata section. 
     818:	02010413          	add	s0,sp,32
     81c:	fea42623          	sw	a0,-20(s0)
     820:	feb42423          	sw	a1,-24(s0)
     824:	fec42223          	sw	a2,-28(s0)
   */
     828:	fe842703          	lw	a4,-24(s0)
     82c:	fec42783          	lw	a5,-20(s0)
     830:	02f70a63          	beq	a4,a5,864 <alt_load_section+0x54>

  alt_load_section (&__flash_rwdata_start, 
     834:	0240006f          	j	858 <alt_load_section+0x48>
		               &__ram_rwdata_start,
		               &__ram_rwdata_end);
     838:	fec42703          	lw	a4,-20(s0)
     83c:	00470793          	add	a5,a4,4
     840:	fef42623          	sw	a5,-20(s0)
     844:	fe842783          	lw	a5,-24(s0)
     848:	00478693          	add	a3,a5,4
     84c:	fed42423          	sw	a3,-24(s0)
     850:	00072703          	lw	a4,0(a4)
     854:	00e7a023          	sw	a4,0(a5)
  alt_load_section (&__flash_rwdata_start, 
     858:	fe842703          	lw	a4,-24(s0)
     85c:	fe442783          	lw	a5,-28(s0)
     860:	fcf71ce3          	bne	a4,a5,838 <alt_load_section+0x28>

  /*
   * Copy the exception handler.
     864:	00000013          	nop
     868:	01c12403          	lw	s0,28(sp)
     86c:	02010113          	add	sp,sp,32
     870:	00008067          	ret

00000874 <alt_load>:
{
     874:	ff010113          	add	sp,sp,-16
     878:	00112623          	sw	ra,12(sp)
     87c:	00812423          	sw	s0,8(sp)
     880:	01010413          	add	s0,sp,16
  alt_load_section (&__flash_rwdata_start, 
     884:	83c18613          	add	a2,gp,-1988 # 25bd8 <__flash_rwdata_start>
     888:	000247b7          	lui	a5,0x24
     88c:	fe878593          	add	a1,a5,-24 # 23fe8 <jtag_uart>
     890:	83c18513          	add	a0,gp,-1988 # 25bd8 <__flash_rwdata_start>
     894:	f7dff0ef          	jal	810 <alt_load_section>
   */

  alt_load_section (&__flash_exceptions_start, 
     898:	2bc00613          	li	a2,700
     89c:	02000593          	li	a1,32
     8a0:	02000513          	li	a0,32
     8a4:	f6dff0ef          	jal	810 <alt_load_section>

  /*
   * Copy the .rodata section.
   */

  alt_load_section (&__flash_rodata_start, 
     8a8:	000247b7          	lui	a5,0x24
     8ac:	fe878613          	add	a2,a5,-24 # 23fe8 <jtag_uart>
     8b0:	000237b7          	lui	a5,0x23
     8b4:	d9078593          	add	a1,a5,-624 # 22d90 <__flash_rodata_start>
     8b8:	000237b7          	lui	a5,0x23
     8bc:	d9078513          	add	a0,a5,-624 # 22d90 <__flash_rodata_start>
     8c0:	f51ff0ef          	jal	810 <alt_load_section>
  
  /*
   * Now ensure that the caches are in synch.
   */
  
  alt_dcache_flush_all();
     8c4:	6d40a0ef          	jal	af98 <alt_dcache_flush_all>
  alt_icache_flush_all();
     8c8:	0fd0a0ef          	jal	b1c4 <alt_icache_flush_all>
}
     8cc:	00000013          	nop
     8d0:	00c12083          	lw	ra,12(sp)
     8d4:	00812403          	lw	s0,8(sp)
     8d8:	01010113          	add	sp,sp,16
     8dc:	00008067          	ret

000008e0 <alt_main>:
 * devices/filesystems/components in the system; and call the entry point for
 * the users application, i.e. main().
 */

void alt_main (void)
{
     8e0:	fe010113          	add	sp,sp,-32
     8e4:	00112e23          	sw	ra,28(sp)
     8e8:	00812c23          	sw	s0,24(sp)
     8ec:	02010413          	add	s0,sp,32
#endif

  /* ALT LOG - please see HAL/sys/alt_log_printf.h for details */
  ALT_LOG_PRINT_BOOT("[alt_main.c] Entering alt_main, calling alt_irq_init.\r\n");
  /* Initialize the interrupt controller. */
  alt_irq_init (NULL);
     8f0:	00000513          	li	a0,0
     8f4:	58c090ef          	jal	9e80 <alt_irq_init>

  /* Initialize the operating system */
  ALT_LOG_PRINT_BOOT("[alt_main.c] Done alt_irq_init, calling alt_os_init.\r\n");
  ALT_OS_INIT();
     8f8:	489000ef          	jal	1580 <OSInit>
     8fc:	00100513          	li	a0,1
     900:	3ed060ef          	jal	74ec <OSSemCreate>
     904:	00050713          	mv	a4,a0
     908:	000277b7          	lui	a5,0x27
     90c:	7ee7a423          	sw	a4,2024(a5) # 277e8 <alt_envsem>
     910:	00100513          	li	a0,1
     914:	3d9060ef          	jal	74ec <OSSemCreate>
     918:	00050713          	mv	a4,a0
     91c:	000277b7          	lui	a5,0x27
     920:	7ee7a623          	sw	a4,2028(a5) # 277ec <alt_heapsem>
     924:	000287b7          	lui	a5,0x28
     928:	84078793          	add	a5,a5,-1984 # 27840 <alt_fd_list_lock>
     92c:	fef42423          	sw	a5,-24(s0)
     930:	00100793          	li	a5,1
     934:	fef41323          	sh	a5,-26(s0)
 */

static ALT_INLINE int ALT_ALWAYS_INLINE alt_sem_create (OS_EVENT** sem, 
              INT16U value)
{
  *sem = OSSemCreate (value);
     938:	fe645783          	lhu	a5,-26(s0)
     93c:	00078513          	mv	a0,a5
     940:	3ad060ef          	jal	74ec <OSSemCreate>
     944:	00050713          	mv	a4,a0
     948:	fe842783          	lw	a5,-24(s0)
     94c:	00e7a023          	sw	a4,0(a5)
  return *sem ? 0 : -1;
     950:	00000013          	nop
  ALT_LOG_PRINT_BOOT("[alt_main.c] Done OS Init, calling alt_sem_create.\r\n");
  ALT_SEM_CREATE (&alt_fd_list_lock, 1);

  /* Initialize the device drivers/software components. */
  ALT_LOG_PRINT_BOOT("[alt_main.c] Calling alt_sys_init.\r\n");
  alt_sys_init();
     954:	564090ef          	jal	9eb8 <alt_sys_init>
   * devices be present (not equal to /dev/null) and if direct drivers
   * aren't being used.
   */

    ALT_LOG_PRINT_BOOT("[alt_main.c] Redirecting IO.\r\n");
    alt_io_redirect(ALT_STDOUT, ALT_STDIN, ALT_STDERR);
     958:	000237b7          	lui	a5,0x23
     95c:	f5478613          	add	a2,a5,-172 # 22f54 <__flash_rodata_start+0x1c4>
     960:	000237b7          	lui	a5,0x23
     964:	f5478593          	add	a1,a5,-172 # 22f54 <__flash_rodata_start+0x1c4>
     968:	000237b7          	lui	a5,0x23
     96c:	f5478513          	add	a0,a5,-172 # 22f54 <__flash_rodata_start+0x1c4>
     970:	31d0a0ef          	jal	b48c <alt_io_redirect>
  /* 
   * Call the C++ constructors 
   */

  ALT_LOG_PRINT_BOOT("[alt_main.c] Calling C++ constructors.\r\n");
  _do_ctors ();
     974:	7900a0ef          	jal	b104 <_do_ctors>
   * redefined as _exit()). This is in the interest of reducing code footprint,
   * in that the atexit() overhead is removed when it's not needed.
   */

  ALT_LOG_PRINT_BOOT("[alt_main.c] Calling atexit.\r\n");
  atexit (_do_dtors);
     978:	0000b7b7          	lui	a5,0xb
     97c:	16478513          	add	a0,a5,356 # b164 <_do_dtors>
     980:	3840b0ef          	jal	bd04 <atexit>
  ALT_LOG_PRINT_BOOT("[alt_main.c] Calling main.\r\n");

#ifdef ALT_NO_EXIT
  main (alt_argc, alt_argv, alt_envp);
#else
  result = main (alt_argc, alt_argv, alt_envp);
     984:	000277b7          	lui	a5,0x27
     988:	7dc7a703          	lw	a4,2012(a5) # 277dc <alt_argc>
     98c:	000277b7          	lui	a5,0x27
     990:	7e07a683          	lw	a3,2016(a5) # 277e0 <alt_argv>
     994:	000277b7          	lui	a5,0x27
     998:	7e47a783          	lw	a5,2020(a5) # 277e4 <alt_envp>
     99c:	00078613          	mv	a2,a5
     9a0:	00068593          	mv	a1,a3
     9a4:	00070513          	mv	a0,a4
     9a8:	b65ff0ef          	jal	50c <main>
     9ac:	fea42623          	sw	a0,-20(s0)
  close(STDOUT_FILENO);
     9b0:	00100513          	li	a0,1
     9b4:	2150b0ef          	jal	c3c8 <close>
  exit (result);
     9b8:	fec42503          	lw	a0,-20(s0)
     9bc:	35c0b0ef          	jal	bd18 <exit>

000009c0 <__env_lock>:
/*
 *
 */

void __env_lock ( struct _reent *_r )
{
     9c0:	ef010113          	add	sp,sp,-272
     9c4:	10112623          	sw	ra,268(sp)
     9c8:	10812423          	sw	s0,264(sp)
     9cc:	11010413          	add	s0,sp,272
     9d0:	eea42e23          	sw	a0,-260(s0)
  INT8U err;
  int id;

  /* use our priority as a task id */

  err = OSTaskQuery( OS_PRIO_SELF, &tcb );
     9d4:	f1440793          	add	a5,s0,-236
     9d8:	00078593          	mv	a1,a5
     9dc:	0ff00513          	li	a0,255
     9e0:	2ad080ef          	jal	948c <OSTaskQuery>
     9e4:	00050793          	mv	a5,a0
     9e8:	f0f405a3          	sb	a5,-245(s0)
  if (err != OS_ERR_NONE)
     9ec:	f0b44783          	lbu	a5,-245(s0)
     9f0:	08079663          	bnez	a5,a7c <__env_lock+0xbc>
    return;

  id = tcb.OSTCBPrio;
     9f4:	f4e44783          	lbu	a5,-178(s0)
     9f8:	fef42623          	sw	a5,-20(s0)
   
  /* see if we own the environment already */

  OSSemQuery( alt_envsem, &semdata );
     9fc:	000277b7          	lui	a5,0x27
     a00:	7e87a783          	lw	a5,2024(a5) # 277e8 <alt_envsem>
     a04:	f0c40713          	add	a4,s0,-244
     a08:	00070593          	mv	a1,a4
     a0c:	00078513          	mv	a0,a5
     a10:	28c070ef          	jal	7c9c <OSSemQuery>
  if( semdata.OSEventGrp && id == lockid ) 
     a14:	f1144783          	lbu	a5,-239(s0)
     a18:	02078663          	beqz	a5,a44 <__env_lock+0x84>
     a1c:	000267b7          	lui	a5,0x26
     a20:	b9c7a783          	lw	a5,-1124(a5) # 25b9c <lockid>
     a24:	fec42703          	lw	a4,-20(s0)
     a28:	00f71e63          	bne	a4,a5,a44 <__env_lock+0x84>
  {
    /* we do; just count the recursion */

    locks++;
     a2c:	0002c7b7          	lui	a5,0x2c
     a30:	9c07a783          	lw	a5,-1600(a5) # 2b9c0 <locks>
     a34:	00178713          	add	a4,a5,1
     a38:	0002c7b7          	lui	a5,0x2c
     a3c:	9ce7a023          	sw	a4,-1600(a5) # 2b9c0 <locks>
    locks  = 1;
    lockid = id;
  }

#endif /* OS_THREAD_SAFE_NEWLIB */
  return;
     a40:	0400006f          	j	a80 <__env_lock+0xc0>
    OSSemPend( alt_envsem, 0, &err );
     a44:	000277b7          	lui	a5,0x27
     a48:	7e87a783          	lw	a5,2024(a5) # 277e8 <alt_envsem>
     a4c:	f0b40713          	add	a4,s0,-245
     a50:	00070613          	mv	a2,a4
     a54:	00000593          	li	a1,0
     a58:	00078513          	mv	a0,a5
     a5c:	5b1060ef          	jal	780c <OSSemPend>
    locks  = 1;
     a60:	0002c7b7          	lui	a5,0x2c
     a64:	00100713          	li	a4,1
     a68:	9ce7a023          	sw	a4,-1600(a5) # 2b9c0 <locks>
    lockid = id;
     a6c:	000267b7          	lui	a5,0x26
     a70:	fec42703          	lw	a4,-20(s0)
     a74:	b8e7ae23          	sw	a4,-1124(a5) # 25b9c <lockid>
  return;
     a78:	0080006f          	j	a80 <__env_lock+0xc0>
    return;
     a7c:	00000013          	nop
}
     a80:	10c12083          	lw	ra,268(sp)
     a84:	10812403          	lw	s0,264(sp)
     a88:	11010113          	add	sp,sp,272
     a8c:	00008067          	ret

00000a90 <__env_unlock>:
/*
 *
 */

void __env_unlock ( struct _reent *_r )
{
     a90:	fe010113          	add	sp,sp,-32
     a94:	00112e23          	sw	ra,28(sp)
     a98:	00812c23          	sw	s0,24(sp)
     a9c:	02010413          	add	s0,sp,32
     aa0:	fea42623          	sw	a0,-20(s0)
#if OS_THREAD_SAFE_NEWLIB
  if (locks == 0)
     aa4:	0002c7b7          	lui	a5,0x2c
     aa8:	9c07a783          	lw	a5,-1600(a5) # 2b9c0 <locks>
     aac:	04078263          	beqz	a5,af0 <__env_unlock+0x60>
   /* 
    * release the environment once the number of locks == the number 
    * of unlocks 
    */

  if( (--locks) == 0 ) 
     ab0:	0002c7b7          	lui	a5,0x2c
     ab4:	9c07a783          	lw	a5,-1600(a5) # 2b9c0 <locks>
     ab8:	fff78713          	add	a4,a5,-1
     abc:	0002c7b7          	lui	a5,0x2c
     ac0:	9ce7a023          	sw	a4,-1600(a5) # 2b9c0 <locks>
     ac4:	0002c7b7          	lui	a5,0x2c
     ac8:	9c07a783          	lw	a5,-1600(a5) # 2b9c0 <locks>
     acc:	02079463          	bnez	a5,af4 <__env_unlock+0x64>
  {
    lockid = -1;
     ad0:	000267b7          	lui	a5,0x26
     ad4:	fff00713          	li	a4,-1
     ad8:	b8e7ae23          	sw	a4,-1124(a5) # 25b9c <lockid>
    OSSemPost( alt_envsem );
     adc:	000277b7          	lui	a5,0x27
     ae0:	7e87a783          	lw	a5,2024(a5) # 277e8 <alt_envsem>
     ae4:	00078513          	mv	a0,a5
     ae8:	09c070ef          	jal	7b84 <OSSemPost>
     aec:	0080006f          	j	af4 <__env_unlock+0x64>
    return;
     af0:	00000013          	nop
  }
#endif /* OS_THREAD_SAFE_NEWLIB */
}
     af4:	01c12083          	lw	ra,28(sp)
     af8:	01812403          	lw	s0,24(sp)
     afc:	02010113          	add	sp,sp,32
     b00:	00008067          	ret

00000b04 <__malloc_lock>:
/*
 *
 */

void __malloc_lock ( struct _reent *_r )
{
     b04:	ee010113          	add	sp,sp,-288
     b08:	10112e23          	sw	ra,284(sp)
     b0c:	10812c23          	sw	s0,280(sp)
     b10:	12010413          	add	s0,sp,288
     b14:	eea42623          	sw	a0,-276(s0)
  OS_TCB tcb;
  OS_SEM_DATA semdata;
  INT8U err;
  int id;
#if OS_CRITICAL_METHOD == 3                      /* Allocate storage for CPU status register           */
    OS_CPU_SR  cpu_sr = 0;
     b18:	fe042623          	sw	zero,-20(s0)
#endif  
  
  if (OSRunning != OS_TRUE)
     b1c:	000287b7          	lui	a5,0x28
     b20:	8137c703          	lbu	a4,-2029(a5) # 27813 <OSRunning>
     b24:	00100793          	li	a5,1
     b28:	0ef71a63          	bne	a4,a5,c1c <__malloc_lock+0x118>
      return;

  /* use our priority as a task id */

  err = OSTaskQuery( OS_PRIO_SELF, &tcb );
     b2c:	f0440793          	add	a5,s0,-252
     b30:	00078593          	mv	a1,a5
     b34:	0ff00513          	li	a0,255
     b38:	155080ef          	jal	948c <OSTaskQuery>
     b3c:	00050793          	mv	a5,a0
     b40:	eef40da3          	sb	a5,-261(s0)
  if (err != OS_ERR_NONE)
     b44:	efb44783          	lbu	a5,-261(s0)
     b48:	0c079e63          	bnez	a5,c24 <__malloc_lock+0x120>
    return;

  id = tcb.OSTCBPrio;
     b4c:	f3e44783          	lbu	a5,-194(s0)
     b50:	fef42423          	sw	a5,-24(s0)
   
  /* see if we own the heap already */

  OSSemQuery( alt_heapsem, &semdata );
     b54:	000277b7          	lui	a5,0x27
     b58:	7ec7a783          	lw	a5,2028(a5) # 277ec <alt_heapsem>
     b5c:	efc40713          	add	a4,s0,-260
     b60:	00070593          	mv	a1,a4
     b64:	00078513          	mv	a0,a5
     b68:	134070ef          	jal	7c9c <OSSemQuery>
    ABBOTTS_LAKE_READ_AND_CLR_CSR(ABBOTTS_LAKE_MSTATUS_CSR, context, ABBOTTS_LAKE_MSTATUS_MIE_MASK);
     b6c:	00800793          	li	a5,8
     b70:	3007b7f3          	csrrc	a5,mstatus,a5
     b74:	fef42223          	sw	a5,-28(s0)
    return context;
     b78:	fe442783          	lw	a5,-28(s0)
  
  OS_ENTER_CRITICAL();
     b7c:	fef42623          	sw	a5,-20(s0)

  if( !semdata.OSCnt && id == lockid ) 
     b80:	efc45783          	lhu	a5,-260(s0)
     b84:	04079463          	bnez	a5,bcc <__malloc_lock+0xc8>
     b88:	000267b7          	lui	a5,0x26
     b8c:	ba07a783          	lw	a5,-1120(a5) # 25ba0 <lockid>
     b90:	fe842703          	lw	a4,-24(s0)
     b94:	02f71c63          	bne	a4,a5,bcc <__malloc_lock+0xc8>
  {
    /* we do; just count the recursion */
    locks++;
     b98:	0002c7b7          	lui	a5,0x2c
     b9c:	9c47a783          	lw	a5,-1596(a5) # 2b9c4 <locks>
     ba0:	00178713          	add	a4,a5,1
     ba4:	0002c7b7          	lui	a5,0x2c
     ba8:	9ce7a223          	sw	a4,-1596(a5) # 2b9c4 <locks>
     bac:	fec42783          	lw	a5,-20(s0)
     bb0:	fef42023          	sw	a5,-32(s0)
    ABBOTTS_LAKE_SET_CSR(ABBOTTS_LAKE_MSTATUS_CSR, context & ABBOTTS_LAKE_MSTATUS_MIE_MASK);
     bb4:	fe042783          	lw	a5,-32(s0)
     bb8:	0087f793          	and	a5,a5,8
     bbc:	3007a073          	csrs	mstatus,a5
}
     bc0:	00000013          	nop
    OS_EXIT_CRITICAL();
     bc4:	00000013          	nop
    locks  = 1;
    lockid = id;
  }

#endif /* OS_THREAD_SAFE_NEWLIB */
  return;
     bc8:	0600006f          	j	c28 <__malloc_lock+0x124>
     bcc:	fec42783          	lw	a5,-20(s0)
     bd0:	fcf42e23          	sw	a5,-36(s0)
    ABBOTTS_LAKE_SET_CSR(ABBOTTS_LAKE_MSTATUS_CSR, context & ABBOTTS_LAKE_MSTATUS_MIE_MASK);
     bd4:	fdc42783          	lw	a5,-36(s0)
     bd8:	0087f793          	and	a5,a5,8
     bdc:	3007a073          	csrs	mstatus,a5
}
     be0:	00000013          	nop
    OSSemPend( alt_heapsem, 0, &err );
     be4:	000277b7          	lui	a5,0x27
     be8:	7ec7a783          	lw	a5,2028(a5) # 277ec <alt_heapsem>
     bec:	efb40713          	add	a4,s0,-261
     bf0:	00070613          	mv	a2,a4
     bf4:	00000593          	li	a1,0
     bf8:	00078513          	mv	a0,a5
     bfc:	411060ef          	jal	780c <OSSemPend>
    locks  = 1;
     c00:	0002c7b7          	lui	a5,0x2c
     c04:	00100713          	li	a4,1
     c08:	9ce7a223          	sw	a4,-1596(a5) # 2b9c4 <locks>
    lockid = id;
     c0c:	000267b7          	lui	a5,0x26
     c10:	fe842703          	lw	a4,-24(s0)
     c14:	bae7a023          	sw	a4,-1120(a5) # 25ba0 <lockid>
  return;
     c18:	0100006f          	j	c28 <__malloc_lock+0x124>
      return;
     c1c:	00000013          	nop
     c20:	0080006f          	j	c28 <__malloc_lock+0x124>
    return;
     c24:	00000013          	nop
}
     c28:	11c12083          	lw	ra,284(sp)
     c2c:	11812403          	lw	s0,280(sp)
     c30:	12010113          	add	sp,sp,288
     c34:	00008067          	ret

00000c38 <__malloc_unlock>:
/*
 *
 */

void __malloc_unlock ( struct _reent *_r )
{
     c38:	fc010113          	add	sp,sp,-64
     c3c:	02112e23          	sw	ra,60(sp)
     c40:	02812c23          	sw	s0,56(sp)
     c44:	04010413          	add	s0,sp,64
     c48:	fca42623          	sw	a0,-52(s0)
#if OS_THREAD_SAFE_NEWLIB

#if OS_CRITICAL_METHOD == 3                      /* Allocate storage for CPU status register           */
    OS_CPU_SR  cpu_sr = 0;
     c4c:	fe042623          	sw	zero,-20(s0)
#endif 

  if (OSRunning != OS_TRUE)
     c50:	000287b7          	lui	a5,0x28
     c54:	8137c703          	lbu	a4,-2029(a5) # 27813 <OSRunning>
     c58:	00100793          	li	a5,1
     c5c:	0af71863          	bne	a4,a5,d0c <__malloc_unlock+0xd4>
    ABBOTTS_LAKE_READ_AND_CLR_CSR(ABBOTTS_LAKE_MSTATUS_CSR, context, ABBOTTS_LAKE_MSTATUS_MIE_MASK);
     c60:	00800793          	li	a5,8
     c64:	3007b7f3          	csrrc	a5,mstatus,a5
     c68:	fef42423          	sw	a5,-24(s0)
    return context;
     c6c:	fe842783          	lw	a5,-24(s0)
      return;

  OS_ENTER_CRITICAL();
     c70:	fef42623          	sw	a5,-20(s0)
  if (locks == 0)
     c74:	0002c7b7          	lui	a5,0x2c
     c78:	9c47a783          	lw	a5,-1596(a5) # 2b9c4 <locks>
     c7c:	02079063          	bnez	a5,c9c <__malloc_unlock+0x64>
     c80:	fec42783          	lw	a5,-20(s0)
     c84:	fef42223          	sw	a5,-28(s0)
    ABBOTTS_LAKE_SET_CSR(ABBOTTS_LAKE_MSTATUS_CSR, context & ABBOTTS_LAKE_MSTATUS_MIE_MASK);
     c88:	fe442783          	lw	a5,-28(s0)
     c8c:	0087f793          	and	a5,a5,8
     c90:	3007a073          	csrs	mstatus,a5
}
     c94:	00000013          	nop
  {
      OS_EXIT_CRITICAL();
      return;
     c98:	0780006f          	j	d10 <__malloc_unlock+0xd8>
  }

  /* release the heap once the number of locks == the number of unlocks */
  if( (--locks) == 0 ) 
     c9c:	0002c7b7          	lui	a5,0x2c
     ca0:	9c47a783          	lw	a5,-1596(a5) # 2b9c4 <locks>
     ca4:	fff78713          	add	a4,a5,-1
     ca8:	0002c7b7          	lui	a5,0x2c
     cac:	9ce7a223          	sw	a4,-1596(a5) # 2b9c4 <locks>
     cb0:	0002c7b7          	lui	a5,0x2c
     cb4:	9c47a783          	lw	a5,-1596(a5) # 2b9c4 <locks>
     cb8:	02079e63          	bnez	a5,cf4 <__malloc_unlock+0xbc>
  {
    lockid = -1;
     cbc:	000267b7          	lui	a5,0x26
     cc0:	fff00713          	li	a4,-1
     cc4:	bae7a023          	sw	a4,-1120(a5) # 25ba0 <lockid>
     cc8:	fec42783          	lw	a5,-20(s0)
     ccc:	fef42023          	sw	a5,-32(s0)
    ABBOTTS_LAKE_SET_CSR(ABBOTTS_LAKE_MSTATUS_CSR, context & ABBOTTS_LAKE_MSTATUS_MIE_MASK);
     cd0:	fe042783          	lw	a5,-32(s0)
     cd4:	0087f793          	and	a5,a5,8
     cd8:	3007a073          	csrs	mstatus,a5
}
     cdc:	00000013          	nop
    OS_EXIT_CRITICAL();
    OSSemPost( alt_heapsem );
     ce0:	000277b7          	lui	a5,0x27
     ce4:	7ec7a783          	lw	a5,2028(a5) # 277ec <alt_heapsem>
     ce8:	00078513          	mv	a0,a5
     cec:	699060ef          	jal	7b84 <OSSemPost>
     cf0:	0200006f          	j	d10 <__malloc_unlock+0xd8>
     cf4:	fec42783          	lw	a5,-20(s0)
     cf8:	fcf42e23          	sw	a5,-36(s0)
    ABBOTTS_LAKE_SET_CSR(ABBOTTS_LAKE_MSTATUS_CSR, context & ABBOTTS_LAKE_MSTATUS_MIE_MASK);
     cfc:	fdc42783          	lw	a5,-36(s0)
     d00:	0087f793          	and	a5,a5,8
     d04:	3007a073          	csrs	mstatus,a5
}
     d08:	0080006f          	j	d10 <__malloc_unlock+0xd8>
      return;
     d0c:	00000013          	nop
  {
      OS_EXIT_CRITICAL();
  }
  
#endif /* OS_THREAD_SAFE_NEWLIB */
}
     d10:	03c12083          	lw	ra,60(sp)
     d14:	03812403          	lw	s0,56(sp)
     d18:	04010113          	add	sp,sp,64
     d1c:	00008067          	ret

00000d20 <OSEventNameGet>:

#if (OS_EVENT_EN) && (OS_EVENT_NAME_EN > 0u)
INT8U  OSEventNameGet (OS_EVENT   *pevent,
                       INT8U     **pname,
                       INT8U      *perr)
{
     d20:	fd010113          	add	sp,sp,-48
     d24:	02112623          	sw	ra,44(sp)
     d28:	02812423          	sw	s0,40(sp)
     d2c:	03010413          	add	s0,sp,48
     d30:	fca42e23          	sw	a0,-36(s0)
     d34:	fcb42c23          	sw	a1,-40(s0)
     d38:	fcc42a23          	sw	a2,-44(s0)
    INT8U      len;
#if OS_CRITICAL_METHOD == 3u                     /* Allocate storage for CPU status register           */
    OS_CPU_SR  cpu_sr = 0u;
     d3c:	fe042623          	sw	zero,-20(s0)
        return (0u);
    }
#endif

#if OS_ARG_CHK_EN > 0u
    if (pevent == (OS_EVENT *)0) {               /* Is 'pevent' a NULL pointer?                        */
     d40:	fdc42783          	lw	a5,-36(s0)
     d44:	00079c63          	bnez	a5,d5c <OSEventNameGet+0x3c>
        *perr = OS_ERR_PEVENT_NULL;
     d48:	fd442783          	lw	a5,-44(s0)
     d4c:	00400713          	li	a4,4
     d50:	00e78023          	sb	a4,0(a5)
        return (0u);
     d54:	00000793          	li	a5,0
     d58:	0cc0006f          	j	e24 <OSEventNameGet+0x104>
    }
    if (pname == (INT8U **)0) {                   /* Is 'pname' a NULL pointer?                         */
     d5c:	fd842783          	lw	a5,-40(s0)
     d60:	00079c63          	bnez	a5,d78 <OSEventNameGet+0x58>
        *perr = OS_ERR_PNAME_NULL;
     d64:	fd442783          	lw	a5,-44(s0)
     d68:	00c00713          	li	a4,12
     d6c:	00e78023          	sb	a4,0(a5)
        return (0u);
     d70:	00000793          	li	a5,0
     d74:	0b00006f          	j	e24 <OSEventNameGet+0x104>
    }
#endif
    if (OSIntNesting > 0u) {                     /* See if trying to call from an ISR                  */
     d78:	000287b7          	lui	a5,0x28
     d7c:	8097c783          	lbu	a5,-2039(a5) # 27809 <OSIntNesting>
     d80:	00078c63          	beqz	a5,d98 <OSEventNameGet+0x78>
        *perr  = OS_ERR_NAME_GET_ISR;
     d84:	fd442783          	lw	a5,-44(s0)
     d88:	01100713          	li	a4,17
     d8c:	00e78023          	sb	a4,0(a5)
        return (0u);
     d90:	00000793          	li	a5,0
     d94:	0900006f          	j	e24 <OSEventNameGet+0x104>
    }
    switch (pevent->OSEventType) {
     d98:	fdc42783          	lw	a5,-36(s0)
     d9c:	0007c783          	lbu	a5,0(a5)
     da0:	fff78713          	add	a4,a5,-1
     da4:	00300793          	li	a5,3
     da8:	00e7fc63          	bgeu	a5,a4,dc0 <OSEventNameGet+0xa0>
        case OS_EVENT_TYPE_MBOX:
        case OS_EVENT_TYPE_Q:
             break;

        default:
             *perr = OS_ERR_EVENT_TYPE;
     dac:	fd442783          	lw	a5,-44(s0)
     db0:	00100713          	li	a4,1
     db4:	00e78023          	sb	a4,0(a5)
             return (0u);
     db8:	00000793          	li	a5,0
     dbc:	0680006f          	j	e24 <OSEventNameGet+0x104>
             break;
     dc0:	00000013          	nop
    ABBOTTS_LAKE_READ_AND_CLR_CSR(ABBOTTS_LAKE_MSTATUS_CSR, context, ABBOTTS_LAKE_MSTATUS_MIE_MASK);
     dc4:	00800793          	li	a5,8
     dc8:	3007b7f3          	csrrc	a5,mstatus,a5
     dcc:	fef42023          	sw	a5,-32(s0)
    return context;
     dd0:	fe042783          	lw	a5,-32(s0)
    }
    OS_ENTER_CRITICAL();
     dd4:	fef42623          	sw	a5,-20(s0)
    *pname = pevent->OSEventName;
     dd8:	fdc42783          	lw	a5,-36(s0)
     ddc:	0107a703          	lw	a4,16(a5)
     de0:	fd842783          	lw	a5,-40(s0)
     de4:	00e7a023          	sw	a4,0(a5)
    len    = OS_StrLen(*pname);
     de8:	fd842783          	lw	a5,-40(s0)
     dec:	0007a783          	lw	a5,0(a5)
     df0:	00078513          	mv	a0,a5
     df4:	301010ef          	jal	28f4 <OS_StrLen>
     df8:	00050793          	mv	a5,a0
     dfc:	fef405a3          	sb	a5,-21(s0)
     e00:	fec42783          	lw	a5,-20(s0)
     e04:	fef42223          	sw	a5,-28(s0)
    ABBOTTS_LAKE_SET_CSR(ABBOTTS_LAKE_MSTATUS_CSR, context & ABBOTTS_LAKE_MSTATUS_MIE_MASK);
     e08:	fe442783          	lw	a5,-28(s0)
     e0c:	0087f793          	and	a5,a5,8
     e10:	3007a073          	csrs	mstatus,a5
}
     e14:	00000013          	nop
    OS_EXIT_CRITICAL();
    *perr  = OS_ERR_NONE;
     e18:	fd442783          	lw	a5,-44(s0)
     e1c:	00078023          	sb	zero,0(a5)
    return (len);
     e20:	feb44783          	lbu	a5,-21(s0)
}
     e24:	00078513          	mv	a0,a5
     e28:	02c12083          	lw	ra,44(sp)
     e2c:	02812403          	lw	s0,40(sp)
     e30:	03010113          	add	sp,sp,48
     e34:	00008067          	ret

00000e38 <OSEventNameSet>:

#if (OS_EVENT_EN) && (OS_EVENT_NAME_EN > 0u)
void  OSEventNameSet (OS_EVENT  *pevent,
                      INT8U     *pname,
                      INT8U     *perr)
{
     e38:	fd010113          	add	sp,sp,-48
     e3c:	02812623          	sw	s0,44(sp)
     e40:	03010413          	add	s0,sp,48
     e44:	fca42e23          	sw	a0,-36(s0)
     e48:	fcb42c23          	sw	a1,-40(s0)
     e4c:	fcc42a23          	sw	a2,-44(s0)
#if OS_CRITICAL_METHOD == 3u                     /* Allocate storage for CPU status register           */
    OS_CPU_SR  cpu_sr = 0u;
     e50:	fe042623          	sw	zero,-20(s0)
        return;
    }
#endif

#if OS_ARG_CHK_EN > 0u
    if (pevent == (OS_EVENT *)0) {               /* Is 'pevent' a NULL pointer?                        */
     e54:	fdc42783          	lw	a5,-36(s0)
     e58:	00079a63          	bnez	a5,e6c <OSEventNameSet+0x34>
        *perr = OS_ERR_PEVENT_NULL;
     e5c:	fd442783          	lw	a5,-44(s0)
     e60:	00400713          	li	a4,4
     e64:	00e78023          	sb	a4,0(a5)
        return;
     e68:	0a00006f          	j	f08 <OSEventNameSet+0xd0>
    }
    if (pname == (INT8U *)0) {                   /* Is 'pname' a NULL pointer?                         */
     e6c:	fd842783          	lw	a5,-40(s0)
     e70:	00079a63          	bnez	a5,e84 <OSEventNameSet+0x4c>
        *perr = OS_ERR_PNAME_NULL;
     e74:	fd442783          	lw	a5,-44(s0)
     e78:	00c00713          	li	a4,12
     e7c:	00e78023          	sb	a4,0(a5)
        return;
     e80:	0880006f          	j	f08 <OSEventNameSet+0xd0>
    }
#endif
    if (OSIntNesting > 0u) {                     /* See if trying to call from an ISR                  */
     e84:	000287b7          	lui	a5,0x28
     e88:	8097c783          	lbu	a5,-2039(a5) # 27809 <OSIntNesting>
     e8c:	00078a63          	beqz	a5,ea0 <OSEventNameSet+0x68>
        *perr = OS_ERR_NAME_SET_ISR;
     e90:	fd442783          	lw	a5,-44(s0)
     e94:	01200713          	li	a4,18
     e98:	00e78023          	sb	a4,0(a5)
        return;
     e9c:	06c0006f          	j	f08 <OSEventNameSet+0xd0>
    }
    switch (pevent->OSEventType) {
     ea0:	fdc42783          	lw	a5,-36(s0)
     ea4:	0007c783          	lbu	a5,0(a5)
     ea8:	fff78713          	add	a4,a5,-1
     eac:	00300793          	li	a5,3
     eb0:	00e7fa63          	bgeu	a5,a4,ec4 <OSEventNameSet+0x8c>
        case OS_EVENT_TYPE_MBOX:
        case OS_EVENT_TYPE_Q:
             break;

        default:
             *perr = OS_ERR_EVENT_TYPE;
     eb4:	fd442783          	lw	a5,-44(s0)
     eb8:	00100713          	li	a4,1
     ebc:	00e78023          	sb	a4,0(a5)
             return;
     ec0:	0480006f          	j	f08 <OSEventNameSet+0xd0>
             break;
     ec4:	00000013          	nop
    ABBOTTS_LAKE_READ_AND_CLR_CSR(ABBOTTS_LAKE_MSTATUS_CSR, context, ABBOTTS_LAKE_MSTATUS_MIE_MASK);
     ec8:	00800793          	li	a5,8
     ecc:	3007b7f3          	csrrc	a5,mstatus,a5
     ed0:	fef42223          	sw	a5,-28(s0)
    return context;
     ed4:	fe442783          	lw	a5,-28(s0)
    }
    OS_ENTER_CRITICAL();
     ed8:	fef42623          	sw	a5,-20(s0)
    pevent->OSEventName = pname;
     edc:	fdc42783          	lw	a5,-36(s0)
     ee0:	fd842703          	lw	a4,-40(s0)
     ee4:	00e7a823          	sw	a4,16(a5)
     ee8:	fec42783          	lw	a5,-20(s0)
     eec:	fef42423          	sw	a5,-24(s0)
    ABBOTTS_LAKE_SET_CSR(ABBOTTS_LAKE_MSTATUS_CSR, context & ABBOTTS_LAKE_MSTATUS_MIE_MASK);
     ef0:	fe842783          	lw	a5,-24(s0)
     ef4:	0087f793          	and	a5,a5,8
     ef8:	3007a073          	csrs	mstatus,a5
}
     efc:	00000013          	nop
    OS_EXIT_CRITICAL();
    OS_TRACE_EVENT_NAME_SET(pevent, pname);
    *perr = OS_ERR_NONE;
     f00:	fd442783          	lw	a5,-44(s0)
     f04:	00078023          	sb	zero,0(a5)
}
     f08:	02c12403          	lw	s0,44(sp)
     f0c:	03010113          	add	sp,sp,48
     f10:	00008067          	ret

00000f14 <OSEventPendMulti>:
INT16U  OSEventPendMulti (OS_EVENT  **pevents_pend,
                          OS_EVENT  **pevents_rdy,
                          void      **pmsgs_rdy,
                          INT32U      timeout,
                          INT8U      *perr)
{
     f14:	f9010113          	add	sp,sp,-112
     f18:	06112623          	sw	ra,108(sp)
     f1c:	06812423          	sw	s0,104(sp)
     f20:	07010413          	add	s0,sp,112
     f24:	faa42623          	sw	a0,-84(s0)
     f28:	fab42423          	sw	a1,-88(s0)
     f2c:	fac42223          	sw	a2,-92(s0)
     f30:	fad42023          	sw	a3,-96(s0)
     f34:	f8e42e23          	sw	a4,-100(s0)
#endif
    BOOLEAN     events_rdy;
    INT16U      events_rdy_nbr;
    INT8U       events_stat;
#if (OS_CRITICAL_METHOD == 3u)                          /* Allocate storage for CPU status register    */
    OS_CPU_SR   cpu_sr = 0u;
     f38:	fc042e23          	sw	zero,-36(s0)
        return (0u);
    }
#endif

#if (OS_ARG_CHK_EN > 0u)
    if (pevents_pend == (OS_EVENT **)0) {               /* Validate 'pevents_pend'                     */
     f3c:	fac42783          	lw	a5,-84(s0)
     f40:	00079c63          	bnez	a5,f58 <OSEventPendMulti+0x44>
       *perr =  OS_ERR_PEVENT_NULL;
     f44:	f9c42783          	lw	a5,-100(s0)
     f48:	00400713          	li	a4,4
     f4c:	00e78023          	sb	a4,0(a5)
        return (0u);
     f50:	00000793          	li	a5,0
     f54:	6180006f          	j	156c <OSEventPendMulti+0x658>
    }
    if (*pevents_pend  == (OS_EVENT *)0) {              /* Validate 'pevents_pend'                     */
     f58:	fac42783          	lw	a5,-84(s0)
     f5c:	0007a783          	lw	a5,0(a5)
     f60:	00079c63          	bnez	a5,f78 <OSEventPendMulti+0x64>
       *perr =  OS_ERR_PEVENT_NULL;
     f64:	f9c42783          	lw	a5,-100(s0)
     f68:	00400713          	li	a4,4
     f6c:	00e78023          	sb	a4,0(a5)
        return (0u);
     f70:	00000793          	li	a5,0
     f74:	5f80006f          	j	156c <OSEventPendMulti+0x658>
    }
    if (pevents_rdy  == (OS_EVENT **)0) {               /* Validate 'pevents_rdy'                      */
     f78:	fa842783          	lw	a5,-88(s0)
     f7c:	00079c63          	bnez	a5,f94 <OSEventPendMulti+0x80>
       *perr =  OS_ERR_PEVENT_NULL;
     f80:	f9c42783          	lw	a5,-100(s0)
     f84:	00400713          	li	a4,4
     f88:	00e78023          	sb	a4,0(a5)
        return (0u);
     f8c:	00000793          	li	a5,0
     f90:	5dc0006f          	j	156c <OSEventPendMulti+0x658>
    }
    if (pmsgs_rdy == (void **)0) {                      /* Validate 'pmsgs_rdy'                        */
     f94:	fa442783          	lw	a5,-92(s0)
     f98:	00079c63          	bnez	a5,fb0 <OSEventPendMulti+0x9c>
       *perr =  OS_ERR_PEVENT_NULL;
     f9c:	f9c42783          	lw	a5,-100(s0)
     fa0:	00400713          	li	a4,4
     fa4:	00e78023          	sb	a4,0(a5)
        return (0u);
     fa8:	00000793          	li	a5,0
     fac:	5c00006f          	j	156c <OSEventPendMulti+0x658>
    }
#endif

   *pevents_rdy = (OS_EVENT *)0;                        /* Init array to NULL in case of errors        */
     fb0:	fa842783          	lw	a5,-88(s0)
     fb4:	0007a023          	sw	zero,0(a5)

    pevents     =  pevents_pend;
     fb8:	fac42783          	lw	a5,-84(s0)
     fbc:	fef42623          	sw	a5,-20(s0)
    pevent      = *pevents;
     fc0:	fec42783          	lw	a5,-20(s0)
     fc4:	0007a783          	lw	a5,0(a5)
     fc8:	fef42423          	sw	a5,-24(s0)
    while  (pevent != (OS_EVENT *)0) {
     fcc:	06c0006f          	j	1038 <OSEventPendMulti+0x124>
        switch (pevent->OSEventType) {                  /* Validate event block types                  */
     fd0:	fe842783          	lw	a5,-24(s0)
     fd4:	0007c783          	lbu	a5,0(a5)
     fd8:	00300713          	li	a4,3
     fdc:	02e78863          	beq	a5,a4,100c <OSEventPendMulti+0xf8>
     fe0:	00300713          	li	a4,3
     fe4:	00f74a63          	blt	a4,a5,ff8 <OSEventPendMulti+0xe4>
     fe8:	00100713          	li	a4,1
     fec:	02e78463          	beq	a5,a4,1014 <OSEventPendMulti+0x100>
     ff0:	00200713          	li	a4,2
     ff4:	02e78463          	beq	a5,a4,101c <OSEventPendMulti+0x108>
#endif

            case OS_EVENT_TYPE_MUTEX:
            case OS_EVENT_TYPE_FLAG:
            default:
                *perr = OS_ERR_EVENT_TYPE;
     ff8:	f9c42783          	lw	a5,-100(s0)
     ffc:	00100713          	li	a4,1
    1000:	00e78023          	sb	a4,0(a5)
                 return (0u);
    1004:	00000793          	li	a5,0
    1008:	5640006f          	j	156c <OSEventPendMulti+0x658>
                 break;
    100c:	00000013          	nop
    1010:	0100006f          	j	1020 <OSEventPendMulti+0x10c>
                 break;
    1014:	00000013          	nop
    1018:	0080006f          	j	1020 <OSEventPendMulti+0x10c>
                 break;
    101c:	00000013          	nop
        }
        pevents++;
    1020:	fec42783          	lw	a5,-20(s0)
    1024:	00478793          	add	a5,a5,4
    1028:	fef42623          	sw	a5,-20(s0)
        pevent = *pevents;
    102c:	fec42783          	lw	a5,-20(s0)
    1030:	0007a783          	lw	a5,0(a5)
    1034:	fef42423          	sw	a5,-24(s0)
    while  (pevent != (OS_EVENT *)0) {
    1038:	fe842783          	lw	a5,-24(s0)
    103c:	f8079ae3          	bnez	a5,fd0 <OSEventPendMulti+0xbc>
    }

    if (OSIntNesting  > 0u) {                           /* See if called from ISR ...                  */
    1040:	000287b7          	lui	a5,0x28
    1044:	8097c783          	lbu	a5,-2039(a5) # 27809 <OSIntNesting>
    1048:	00078c63          	beqz	a5,1060 <OSEventPendMulti+0x14c>
       *perr =  OS_ERR_PEND_ISR;                        /* ... can't PEND from an ISR                  */
    104c:	f9c42783          	lw	a5,-100(s0)
    1050:	00200713          	li	a4,2
    1054:	00e78023          	sb	a4,0(a5)
        return (0u);
    1058:	00000793          	li	a5,0
    105c:	5100006f          	j	156c <OSEventPendMulti+0x658>
    }
    if (OSLockNesting > 0u) {                           /* See if called with scheduler locked ...     */
    1060:	000287b7          	lui	a5,0x28
    1064:	80a7c783          	lbu	a5,-2038(a5) # 2780a <OSLockNesting>
    1068:	00078c63          	beqz	a5,1080 <OSEventPendMulti+0x16c>
       *perr =  OS_ERR_PEND_LOCKED;                     /* ... can't PEND when locked                  */
    106c:	f9c42783          	lw	a5,-100(s0)
    1070:	00d00713          	li	a4,13
    1074:	00e78023          	sb	a4,0(a5)
        return (0u);
    1078:	00000793          	li	a5,0
    107c:	4f00006f          	j	156c <OSEventPendMulti+0x658>
    }

    events_rdy     =  OS_FALSE;
    1080:	fe0403a3          	sb	zero,-25(s0)
    events_rdy_nbr =  0u;
    1084:	fe041223          	sh	zero,-28(s0)
    events_stat    =  OS_STAT_RDY;
    1088:	fe0401a3          	sb	zero,-29(s0)
    pevents        =  pevents_pend;
    108c:	fac42783          	lw	a5,-84(s0)
    1090:	fef42623          	sw	a5,-20(s0)
    pevent         = *pevents;
    1094:	fec42783          	lw	a5,-20(s0)
    1098:	0007a783          	lw	a5,0(a5)
    109c:	fef42423          	sw	a5,-24(s0)
    ABBOTTS_LAKE_READ_AND_CLR_CSR(ABBOTTS_LAKE_MSTATUS_CSR, context, ABBOTTS_LAKE_MSTATUS_MIE_MASK);
    10a0:	00800793          	li	a5,8
    10a4:	3007b7f3          	csrrc	a5,mstatus,a5
    10a8:	fcf42a23          	sw	a5,-44(s0)
    return context;
    10ac:	fd442783          	lw	a5,-44(s0)
    OS_ENTER_CRITICAL();
    10b0:	fcf42e23          	sw	a5,-36(s0)
    while (pevent != (OS_EVENT *)0) {                   /* See if any events already available         */
    10b4:	2140006f          	j	12c8 <OSEventPendMulti+0x3b4>
        switch (pevent->OSEventType) {
    10b8:	fe842783          	lw	a5,-24(s0)
    10bc:	0007c783          	lbu	a5,0(a5)
    10c0:	00300713          	li	a4,3
    10c4:	02e78063          	beq	a5,a4,10e4 <OSEventPendMulti+0x1d0>
    10c8:	00300713          	li	a4,3
    10cc:	1af74863          	blt	a4,a5,127c <OSEventPendMulti+0x368>
    10d0:	00100713          	li	a4,1
    10d4:	08e78263          	beq	a5,a4,1158 <OSEventPendMulti+0x244>
    10d8:	00200713          	li	a4,2
    10dc:	0ee78263          	beq	a5,a4,11c0 <OSEventPendMulti+0x2ac>
    10e0:	19c0006f          	j	127c <OSEventPendMulti+0x368>
#if (OS_SEM_EN > 0u)
            case OS_EVENT_TYPE_SEM:
                 if (pevent->OSEventCnt > 0u) {         /* If semaphore count > 0, resource available; */
    10e4:	fe842783          	lw	a5,-24(s0)
    10e8:	0087d783          	lhu	a5,8(a5)
    10ec:	04078e63          	beqz	a5,1148 <OSEventPendMulti+0x234>
                     pevent->OSEventCnt--;              /* ... decrement semaphore,                ... */
    10f0:	fe842783          	lw	a5,-24(s0)
    10f4:	0087d783          	lhu	a5,8(a5)
    10f8:	fff78793          	add	a5,a5,-1
    10fc:	01079713          	sll	a4,a5,0x10
    1100:	01075713          	srl	a4,a4,0x10
    1104:	fe842783          	lw	a5,-24(s0)
    1108:	00e79423          	sh	a4,8(a5)
                    *pevents_rdy++ =  pevent;           /* ... and return available semaphore event    */
    110c:	fa842783          	lw	a5,-88(s0)
    1110:	00478713          	add	a4,a5,4
    1114:	fae42423          	sw	a4,-88(s0)
    1118:	fe842703          	lw	a4,-24(s0)
    111c:	00e7a023          	sw	a4,0(a5)
                      events_rdy   =  OS_TRUE;
    1120:	00100793          	li	a5,1
    1124:	fef403a3          	sb	a5,-25(s0)
                    *pmsgs_rdy++   = (void *)0;         /* NO message returned  for semaphores         */
    1128:	fa442783          	lw	a5,-92(s0)
    112c:	00478713          	add	a4,a5,4
    1130:	fae42223          	sw	a4,-92(s0)
    1134:	0007a023          	sw	zero,0(a5)
                      events_rdy_nbr++;
    1138:	fe445783          	lhu	a5,-28(s0)
    113c:	00178793          	add	a5,a5,1
    1140:	fef41223          	sh	a5,-28(s0)

                 } else {
                      events_stat |=  OS_STAT_SEM;      /* Configure multi-pend for semaphore events   */
                 }
                 break;
    1144:	16c0006f          	j	12b0 <OSEventPendMulti+0x39c>
                      events_stat |=  OS_STAT_SEM;      /* Configure multi-pend for semaphore events   */
    1148:	fe344783          	lbu	a5,-29(s0)
    114c:	0017e793          	or	a5,a5,1
    1150:	fef401a3          	sb	a5,-29(s0)
                 break;
    1154:	15c0006f          	j	12b0 <OSEventPendMulti+0x39c>
#endif

#if (OS_MBOX_EN > 0u)
            case OS_EVENT_TYPE_MBOX:
                 if (pevent->OSEventPtr != (void *)0) { /* If mailbox NOT empty;                   ... */
    1158:	fe842783          	lw	a5,-24(s0)
    115c:	0047a783          	lw	a5,4(a5)
    1160:	04078863          	beqz	a5,11b0 <OSEventPendMulti+0x29c>
                                                        /* ... return available message,           ... */
                    *pmsgs_rdy++         = (void *)pevent->OSEventPtr;
    1164:	fa442783          	lw	a5,-92(s0)
    1168:	00478713          	add	a4,a5,4
    116c:	fae42223          	sw	a4,-92(s0)
    1170:	fe842703          	lw	a4,-24(s0)
    1174:	00472703          	lw	a4,4(a4)
    1178:	00e7a023          	sw	a4,0(a5)
                     pevent->OSEventPtr  = (void *)0;
    117c:	fe842783          	lw	a5,-24(s0)
    1180:	0007a223          	sw	zero,4(a5)
                    *pevents_rdy++       =  pevent;     /* ... and return available mailbox event      */
    1184:	fa842783          	lw	a5,-88(s0)
    1188:	00478713          	add	a4,a5,4
    118c:	fae42423          	sw	a4,-88(s0)
    1190:	fe842703          	lw	a4,-24(s0)
    1194:	00e7a023          	sw	a4,0(a5)
                      events_rdy         =  OS_TRUE;
    1198:	00100793          	li	a5,1
    119c:	fef403a3          	sb	a5,-25(s0)
                      events_rdy_nbr++;
    11a0:	fe445783          	lhu	a5,-28(s0)
    11a4:	00178793          	add	a5,a5,1
    11a8:	fef41223          	sh	a5,-28(s0)

                 } else {
                      events_stat |= OS_STAT_MBOX;      /* Configure multi-pend for mailbox events     */
                 }
                 break;
    11ac:	1040006f          	j	12b0 <OSEventPendMulti+0x39c>
                      events_stat |= OS_STAT_MBOX;      /* Configure multi-pend for mailbox events     */
    11b0:	fe344783          	lbu	a5,-29(s0)
    11b4:	0027e793          	or	a5,a5,2
    11b8:	fef401a3          	sb	a5,-29(s0)
                 break;
    11bc:	0f40006f          	j	12b0 <OSEventPendMulti+0x39c>
#endif

#if ((OS_Q_EN > 0u) && (OS_MAX_QS > 0u))
            case OS_EVENT_TYPE_Q:
                 pq = (OS_Q *)pevent->OSEventPtr;
    11c0:	fe842783          	lw	a5,-24(s0)
    11c4:	0047a783          	lw	a5,4(a5)
    11c8:	fcf42c23          	sw	a5,-40(s0)
                 if (pq->OSQEntries > 0u) {             /* If queue NOT empty;                     ... */
    11cc:	fd842783          	lw	a5,-40(s0)
    11d0:	0167d783          	lhu	a5,22(a5)
    11d4:	08078c63          	beqz	a5,126c <OSEventPendMulti+0x358>
                                                        /* ... return available message,           ... */
                    *pmsgs_rdy++ = (void *)*pq->OSQOut++;
    11d8:	fd842783          	lw	a5,-40(s0)
    11dc:	0107a703          	lw	a4,16(a5)
    11e0:	00470693          	add	a3,a4,4
    11e4:	fd842783          	lw	a5,-40(s0)
    11e8:	00d7a823          	sw	a3,16(a5)
    11ec:	fa442783          	lw	a5,-92(s0)
    11f0:	00478693          	add	a3,a5,4
    11f4:	fad42223          	sw	a3,-92(s0)
    11f8:	00072703          	lw	a4,0(a4)
    11fc:	00e7a023          	sw	a4,0(a5)
                     if (pq->OSQOut == pq->OSQEnd) {    /* If OUT ptr at queue end, ...                */
    1200:	fd842783          	lw	a5,-40(s0)
    1204:	0107a703          	lw	a4,16(a5)
    1208:	fd842783          	lw	a5,-40(s0)
    120c:	0087a783          	lw	a5,8(a5)
    1210:	00f71a63          	bne	a4,a5,1224 <OSEventPendMulti+0x310>
                         pq->OSQOut  = pq->OSQStart;    /* ... wrap   to queue start                   */
    1214:	fd842783          	lw	a5,-40(s0)
    1218:	0047a703          	lw	a4,4(a5)
    121c:	fd842783          	lw	a5,-40(s0)
    1220:	00e7a823          	sw	a4,16(a5)
                     }
                     pq->OSQEntries--;                  /* Update number of queue entries              */
    1224:	fd842783          	lw	a5,-40(s0)
    1228:	0167d783          	lhu	a5,22(a5)
    122c:	fff78793          	add	a5,a5,-1
    1230:	01079713          	sll	a4,a5,0x10
    1234:	01075713          	srl	a4,a4,0x10
    1238:	fd842783          	lw	a5,-40(s0)
    123c:	00e79b23          	sh	a4,22(a5)
                    *pevents_rdy++ = pevent;            /* ... and return available queue event        */
    1240:	fa842783          	lw	a5,-88(s0)
    1244:	00478713          	add	a4,a5,4
    1248:	fae42423          	sw	a4,-88(s0)
    124c:	fe842703          	lw	a4,-24(s0)
    1250:	00e7a023          	sw	a4,0(a5)
                      events_rdy   = OS_TRUE;
    1254:	00100793          	li	a5,1
    1258:	fef403a3          	sb	a5,-25(s0)
                      events_rdy_nbr++;
    125c:	fe445783          	lhu	a5,-28(s0)
    1260:	00178793          	add	a5,a5,1
    1264:	fef41223          	sh	a5,-28(s0)

                 } else {
                      events_stat |= OS_STAT_Q;         /* Configure multi-pend for queue events       */
                 }
                 break;
    1268:	0480006f          	j	12b0 <OSEventPendMulti+0x39c>
                      events_stat |= OS_STAT_Q;         /* Configure multi-pend for queue events       */
    126c:	fe344783          	lbu	a5,-29(s0)
    1270:	0047e793          	or	a5,a5,4
    1274:	fef401a3          	sb	a5,-29(s0)
                 break;
    1278:	0380006f          	j	12b0 <OSEventPendMulti+0x39c>
    127c:	fdc42783          	lw	a5,-36(s0)
    1280:	fcf42823          	sw	a5,-48(s0)
    ABBOTTS_LAKE_SET_CSR(ABBOTTS_LAKE_MSTATUS_CSR, context & ABBOTTS_LAKE_MSTATUS_MIE_MASK);
    1284:	fd042783          	lw	a5,-48(s0)
    1288:	0087f793          	and	a5,a5,8
    128c:	3007a073          	csrs	mstatus,a5
}
    1290:	00000013          	nop

            case OS_EVENT_TYPE_MUTEX:
            case OS_EVENT_TYPE_FLAG:
            default:
                 OS_EXIT_CRITICAL();
                *pevents_rdy = (OS_EVENT *)0;           /* NULL terminate return event array           */
    1294:	fa842783          	lw	a5,-88(s0)
    1298:	0007a023          	sw	zero,0(a5)
                *perr        =  OS_ERR_EVENT_TYPE;
    129c:	f9c42783          	lw	a5,-100(s0)
    12a0:	00100713          	li	a4,1
    12a4:	00e78023          	sb	a4,0(a5)
                 return (events_rdy_nbr);
    12a8:	fe445783          	lhu	a5,-28(s0)
    12ac:	2c00006f          	j	156c <OSEventPendMulti+0x658>
        }
        pevents++;
    12b0:	fec42783          	lw	a5,-20(s0)
    12b4:	00478793          	add	a5,a5,4
    12b8:	fef42623          	sw	a5,-20(s0)
        pevent = *pevents;
    12bc:	fec42783          	lw	a5,-20(s0)
    12c0:	0007a783          	lw	a5,0(a5)
    12c4:	fef42423          	sw	a5,-24(s0)
    while (pevent != (OS_EVENT *)0) {                   /* See if any events already available         */
    12c8:	fe842783          	lw	a5,-24(s0)
    12cc:	de0796e3          	bnez	a5,10b8 <OSEventPendMulti+0x1a4>
    }

    if ( events_rdy == OS_TRUE) {                       /* Return any events already available         */
    12d0:	fe744703          	lbu	a4,-25(s0)
    12d4:	00100793          	li	a5,1
    12d8:	02f71a63          	bne	a4,a5,130c <OSEventPendMulti+0x3f8>
       *pevents_rdy = (OS_EVENT *)0;                    /* NULL terminate return event array           */
    12dc:	fa842783          	lw	a5,-88(s0)
    12e0:	0007a023          	sw	zero,0(a5)
    12e4:	fdc42783          	lw	a5,-36(s0)
    12e8:	fcf42623          	sw	a5,-52(s0)
    ABBOTTS_LAKE_SET_CSR(ABBOTTS_LAKE_MSTATUS_CSR, context & ABBOTTS_LAKE_MSTATUS_MIE_MASK);
    12ec:	fcc42783          	lw	a5,-52(s0)
    12f0:	0087f793          	and	a5,a5,8
    12f4:	3007a073          	csrs	mstatus,a5
}
    12f8:	00000013          	nop
        OS_EXIT_CRITICAL();
       *perr        =  OS_ERR_NONE;
    12fc:	f9c42783          	lw	a5,-100(s0)
    1300:	00078023          	sb	zero,0(a5)
        return (events_rdy_nbr);
    1304:	fe445783          	lhu	a5,-28(s0)
    1308:	2640006f          	j	156c <OSEventPendMulti+0x658>
    }

                                                        /* Otherwise, must wait until any event occurs */
    OSTCBCur->OSTCBStat     |= events_stat  |           /* Resource not available, ...                 */
    130c:	000287b7          	lui	a5,0x28
    1310:	81c7a783          	lw	a5,-2020(a5) # 2781c <OSTCBCur>
    1314:	0387c783          	lbu	a5,56(a5)
    1318:	fe344703          	lbu	a4,-29(s0)
    131c:	00e7e7b3          	or	a5,a5,a4
    1320:	0ff7f713          	zext.b	a4,a5
    1324:	000287b7          	lui	a5,0x28
    1328:	81c7a783          	lw	a5,-2020(a5) # 2781c <OSTCBCur>
    132c:	f8076713          	or	a4,a4,-128
    1330:	0ff77713          	zext.b	a4,a4
    1334:	02e78c23          	sb	a4,56(a5)
                               OS_STAT_MULTI;           /* ... pend on multiple events                 */
    OSTCBCur->OSTCBStatPend  = OS_STAT_PEND_OK;
    1338:	000287b7          	lui	a5,0x28
    133c:	81c7a783          	lw	a5,-2020(a5) # 2781c <OSTCBCur>
    1340:	02078ca3          	sb	zero,57(a5)
    OSTCBCur->OSTCBDly       = timeout;                 /* Store pend timeout in TCB                   */
    1344:	000287b7          	lui	a5,0x28
    1348:	81c7a783          	lw	a5,-2020(a5) # 2781c <OSTCBCur>
    134c:	fa042703          	lw	a4,-96(s0)
    1350:	02e7aa23          	sw	a4,52(a5)
    OS_EventTaskWaitMulti(pevents_pend);                /* Suspend task until events or timeout occurs */
    1354:	fac42503          	lw	a0,-84(s0)
    1358:	3d9000ef          	jal	1f30 <OS_EventTaskWaitMulti>
    135c:	fdc42783          	lw	a5,-36(s0)
    1360:	fcf42223          	sw	a5,-60(s0)
    ABBOTTS_LAKE_SET_CSR(ABBOTTS_LAKE_MSTATUS_CSR, context & ABBOTTS_LAKE_MSTATUS_MIE_MASK);
    1364:	fc442783          	lw	a5,-60(s0)
    1368:	0087f793          	and	a5,a5,8
    136c:	3007a073          	csrs	mstatus,a5
}
    1370:	00000013          	nop

    OS_EXIT_CRITICAL();
    OS_Sched();                                         /* Find next highest priority task ready       */
    1374:	428010ef          	jal	279c <OS_Sched>
    ABBOTTS_LAKE_READ_AND_CLR_CSR(ABBOTTS_LAKE_MSTATUS_CSR, context, ABBOTTS_LAKE_MSTATUS_MIE_MASK);
    1378:	00800793          	li	a5,8
    137c:	3007b7f3          	csrrc	a5,mstatus,a5
    1380:	fcf42423          	sw	a5,-56(s0)
    return context;
    1384:	fc842783          	lw	a5,-56(s0)
    OS_ENTER_CRITICAL();
    1388:	fcf42e23          	sw	a5,-36(s0)

    switch (OSTCBCur->OSTCBStatPend) {                  /* Handle event posted, aborted, or timed-out  */
    138c:	000287b7          	lui	a5,0x28
    1390:	81c7a783          	lw	a5,-2020(a5) # 2781c <OSTCBCur>
    1394:	0397c783          	lbu	a5,57(a5)
    1398:	00078663          	beqz	a5,13a4 <OSEventPendMulti+0x490>
    139c:	00200713          	li	a4,2
    13a0:	06e79663          	bne	a5,a4,140c <OSEventPendMulti+0x4f8>
        case OS_STAT_PEND_OK:
        case OS_STAT_PEND_ABORT:
             pevent = OSTCBCur->OSTCBEventMultiRdy;
    13a4:	000287b7          	lui	a5,0x28
    13a8:	81c7a783          	lw	a5,-2020(a5) # 2781c <OSTCBCur>
    13ac:	0247a783          	lw	a5,36(a5)
    13b0:	fef42423          	sw	a5,-24(s0)
             if (pevent != (OS_EVENT *)0) {             /* If task event ptr != NULL, ...              */
    13b4:	fe842783          	lw	a5,-24(s0)
    13b8:	02078663          	beqz	a5,13e4 <OSEventPendMulti+0x4d0>
                *pevents_rdy++   =  pevent;             /* ... return available event ...              */
    13bc:	fa842783          	lw	a5,-88(s0)
    13c0:	00478713          	add	a4,a5,4
    13c4:	fae42423          	sw	a4,-88(s0)
    13c8:	fe842703          	lw	a4,-24(s0)
    13cc:	00e7a023          	sw	a4,0(a5)
                *pevents_rdy     = (OS_EVENT *)0;       /* ... & NULL terminate return event array     */
    13d0:	fa842783          	lw	a5,-88(s0)
    13d4:	0007a023          	sw	zero,0(a5)
                  events_rdy_nbr =  1;
    13d8:	00100793          	li	a5,1
    13dc:	fef41223          	sh	a5,-28(s0)

             } else {                                   /* Else NO event available, handle as timeout  */
                 OSTCBCur->OSTCBStatPend = OS_STAT_PEND_TO;
                 OS_EventTaskRemoveMulti(OSTCBCur, pevents_pend);
             }
             break;
    13e0:	0440006f          	j	1424 <OSEventPendMulti+0x510>
                 OSTCBCur->OSTCBStatPend = OS_STAT_PEND_TO;
    13e4:	000287b7          	lui	a5,0x28
    13e8:	81c7a783          	lw	a5,-2020(a5) # 2781c <OSTCBCur>
    13ec:	00100713          	li	a4,1
    13f0:	02e78ca3          	sb	a4,57(a5)
                 OS_EventTaskRemoveMulti(OSTCBCur, pevents_pend);
    13f4:	000287b7          	lui	a5,0x28
    13f8:	81c7a783          	lw	a5,-2020(a5) # 2781c <OSTCBCur>
    13fc:	fac42583          	lw	a1,-84(s0)
    1400:	00078513          	mv	a0,a5
    1404:	551000ef          	jal	2154 <OS_EventTaskRemoveMulti>
             break;
    1408:	01c0006f          	j	1424 <OSEventPendMulti+0x510>

        case OS_STAT_PEND_TO:                           /* If events timed out, ...                    */
        default:                                        /* ... remove task from events' wait lists     */
             OS_EventTaskRemoveMulti(OSTCBCur, pevents_pend);
    140c:	000287b7          	lui	a5,0x28
    1410:	81c7a783          	lw	a5,-2020(a5) # 2781c <OSTCBCur>
    1414:	fac42583          	lw	a1,-84(s0)
    1418:	00078513          	mv	a0,a5
    141c:	539000ef          	jal	2154 <OS_EventTaskRemoveMulti>
             break;
    1420:	00000013          	nop
    }

    switch (OSTCBCur->OSTCBStatPend) {
    1424:	000287b7          	lui	a5,0x28
    1428:	81c7a783          	lw	a5,-2020(a5) # 2781c <OSTCBCur>
    142c:	0397c783          	lbu	a5,57(a5)
    1430:	00078863          	beqz	a5,1440 <OSEventPendMulti+0x52c>
    1434:	00200713          	li	a4,2
    1438:	08e78e63          	beq	a5,a4,14d4 <OSEventPendMulti+0x5c0>
    143c:	0b80006f          	j	14f4 <OSEventPendMulti+0x5e0>
        case OS_STAT_PEND_OK:
             switch (pevent->OSEventType) {             /* Return event's message                      */
    1440:	fe842783          	lw	a5,-24(s0)
    1444:	0007c783          	lbu	a5,0(a5)
    1448:	00200713          	li	a4,2
    144c:	00f74663          	blt	a4,a5,1458 <OSEventPendMulti+0x544>
    1450:	02f04263          	bgtz	a5,1474 <OSEventPendMulti+0x560>
    1454:	0400006f          	j	1494 <OSEventPendMulti+0x580>
    1458:	00300713          	li	a4,3
    145c:	02e79c63          	bne	a5,a4,1494 <OSEventPendMulti+0x580>
#if (OS_SEM_EN > 0u)
                 case OS_EVENT_TYPE_SEM:
                     *pmsgs_rdy++ = (void *)0;          /* NO message returned for semaphores          */
    1460:	fa442783          	lw	a5,-92(s0)
    1464:	00478713          	add	a4,a5,4
    1468:	fae42223          	sw	a4,-92(s0)
    146c:	0007a023          	sw	zero,0(a5)
                      break;
    1470:	0580006f          	j	14c8 <OSEventPendMulti+0x5b4>

#if ((OS_MBOX_EN > 0u) ||                 \
    ((OS_Q_EN    > 0u) && (OS_MAX_QS > 0u)))
                 case OS_EVENT_TYPE_MBOX:
                 case OS_EVENT_TYPE_Q:
                     *pmsgs_rdy++ = (void *)OSTCBCur->OSTCBMsg;     /* Return received message         */
    1474:	000287b7          	lui	a5,0x28
    1478:	81c7a703          	lw	a4,-2020(a5) # 2781c <OSTCBCur>
    147c:	fa442783          	lw	a5,-92(s0)
    1480:	00478693          	add	a3,a5,4
    1484:	fad42223          	sw	a3,-92(s0)
    1488:	02872703          	lw	a4,40(a4)
    148c:	00e7a023          	sw	a4,0(a5)
                      break;
    1490:	0380006f          	j	14c8 <OSEventPendMulti+0x5b4>
    1494:	fdc42783          	lw	a5,-36(s0)
    1498:	fcf42023          	sw	a5,-64(s0)
    ABBOTTS_LAKE_SET_CSR(ABBOTTS_LAKE_MSTATUS_CSR, context & ABBOTTS_LAKE_MSTATUS_MIE_MASK);
    149c:	fc042783          	lw	a5,-64(s0)
    14a0:	0087f793          	and	a5,a5,8
    14a4:	3007a073          	csrs	mstatus,a5
}
    14a8:	00000013          	nop

                 case OS_EVENT_TYPE_MUTEX:
                 case OS_EVENT_TYPE_FLAG:
                 default:
                      OS_EXIT_CRITICAL();
                     *pevents_rdy = (OS_EVENT *)0;      /* NULL terminate return event array           */
    14ac:	fa842783          	lw	a5,-88(s0)
    14b0:	0007a023          	sw	zero,0(a5)
                     *perr        =  OS_ERR_EVENT_TYPE;
    14b4:	f9c42783          	lw	a5,-100(s0)
    14b8:	00100713          	li	a4,1
    14bc:	00e78023          	sb	a4,0(a5)
                      return (events_rdy_nbr);
    14c0:	fe445783          	lhu	a5,-28(s0)
    14c4:	0a80006f          	j	156c <OSEventPendMulti+0x658>
             }
            *perr = OS_ERR_NONE;
    14c8:	f9c42783          	lw	a5,-100(s0)
    14cc:	00078023          	sb	zero,0(a5)
             break;
    14d0:	0440006f          	j	1514 <OSEventPendMulti+0x600>

        case OS_STAT_PEND_ABORT:
            *pmsgs_rdy++ = (void *)0;                   /* NO message returned for abort               */
    14d4:	fa442783          	lw	a5,-92(s0)
    14d8:	00478713          	add	a4,a5,4
    14dc:	fae42223          	sw	a4,-92(s0)
    14e0:	0007a023          	sw	zero,0(a5)
            *perr        =  OS_ERR_PEND_ABORT;          /* Indicate that event  aborted                */
    14e4:	f9c42783          	lw	a5,-100(s0)
    14e8:	00e00713          	li	a4,14
    14ec:	00e78023          	sb	a4,0(a5)
             break;
    14f0:	0240006f          	j	1514 <OSEventPendMulti+0x600>

        case OS_STAT_PEND_TO:
        default:
            *pmsgs_rdy++ = (void *)0;                   /* NO message returned for timeout             */
    14f4:	fa442783          	lw	a5,-92(s0)
    14f8:	00478713          	add	a4,a5,4
    14fc:	fae42223          	sw	a4,-92(s0)
    1500:	0007a023          	sw	zero,0(a5)
            *perr        =  OS_ERR_TIMEOUT;             /* Indicate that events timed out              */
    1504:	f9c42783          	lw	a5,-100(s0)
    1508:	00a00713          	li	a4,10
    150c:	00e78023          	sb	a4,0(a5)
             break;
    1510:	00000013          	nop
    }

    OSTCBCur->OSTCBStat          =  OS_STAT_RDY;        /* Set   task  status to ready                 */
    1514:	000287b7          	lui	a5,0x28
    1518:	81c7a783          	lw	a5,-2020(a5) # 2781c <OSTCBCur>
    151c:	02078c23          	sb	zero,56(a5)
    OSTCBCur->OSTCBStatPend      =  OS_STAT_PEND_OK;    /* Clear pend  status                          */
    1520:	000287b7          	lui	a5,0x28
    1524:	81c7a783          	lw	a5,-2020(a5) # 2781c <OSTCBCur>
    1528:	02078ca3          	sb	zero,57(a5)
    OSTCBCur->OSTCBEventMultiPtr = (OS_EVENT **)0;      /* Clear event pointers                        */
    152c:	000287b7          	lui	a5,0x28
    1530:	81c7a783          	lw	a5,-2020(a5) # 2781c <OSTCBCur>
    1534:	0207a023          	sw	zero,32(a5)
    OSTCBCur->OSTCBEventMultiRdy = (OS_EVENT  *)0;
    1538:	000287b7          	lui	a5,0x28
    153c:	81c7a783          	lw	a5,-2020(a5) # 2781c <OSTCBCur>
    1540:	0207a223          	sw	zero,36(a5)
#if ((OS_MBOX_EN > 0u) ||                 \
    ((OS_Q_EN    > 0u) && (OS_MAX_QS > 0u)))
    OSTCBCur->OSTCBMsg           = (void      *)0;      /* Clear task  message                         */
    1544:	000287b7          	lui	a5,0x28
    1548:	81c7a783          	lw	a5,-2020(a5) # 2781c <OSTCBCur>
    154c:	0207a423          	sw	zero,40(a5)
    1550:	fdc42783          	lw	a5,-36(s0)
    1554:	faf42e23          	sw	a5,-68(s0)
    ABBOTTS_LAKE_SET_CSR(ABBOTTS_LAKE_MSTATUS_CSR, context & ABBOTTS_LAKE_MSTATUS_MIE_MASK);
    1558:	fbc42783          	lw	a5,-68(s0)
    155c:	0087f793          	and	a5,a5,8
    1560:	3007a073          	csrs	mstatus,a5
}
    1564:	00000013          	nop
#endif
    OS_EXIT_CRITICAL();

    return (events_rdy_nbr);
    1568:	fe445783          	lhu	a5,-28(s0)
}
    156c:	00078513          	mv	a0,a5
    1570:	06c12083          	lw	ra,108(sp)
    1574:	06812403          	lw	s0,104(sp)
    1578:	07010113          	add	sp,sp,112
    157c:	00008067          	ret

00001580 <OSInit>:
* Returns    : none
*********************************************************************************************************
*/

void  OSInit (void)
{
    1580:	ff010113          	add	sp,sp,-16
    1584:	00112623          	sw	ra,12(sp)
    1588:	00812423          	sw	s0,8(sp)
    158c:	01010413          	add	s0,sp,16
#if defined(OS_TLS_TBL_SIZE) && (OS_TLS_TBL_SIZE > 0u)
    INT8U  err;
#endif
#endif

    OSInitHookBegin();                                           /* Call port specific initialization code   */
    1590:	6e00a0ef          	jal	bc70 <OSInitHookBegin>

    OS_InitMisc();                                               /* Initialize miscellaneous variables       */
    1594:	62d000ef          	jal	23c0 <OS_InitMisc>

    OS_InitRdyList();                                            /* Initialize the Ready List                */
    1598:	69d000ef          	jal	2434 <OS_InitRdyList>

    OS_InitTCBList();                                            /* Initialize the free list of OS_TCBs      */
    159c:	000010ef          	jal	259c <OS_InitTCBList>

    OS_InitEventList();                                          /* Initialize the free list of OS_EVENTs    */
    15a0:	501000ef          	jal	22a0 <OS_InitEventList>

#if (OS_FLAG_EN > 0u) && (OS_MAX_FLAGS > 0u)
    OS_FlagInit();                                               /* Initialize the event flag structures     */
    15a4:	174030ef          	jal	4718 <OS_FlagInit>
#endif

#if (OS_MEM_EN > 0u) && (OS_MAX_MEM_PART > 0u)
    OS_MemInit();                                                /* Initialize the memory manager            */
    15a8:	22d030ef          	jal	4fd4 <OS_MemInit>
#endif

#if (OS_Q_EN > 0u) && (OS_MAX_QS > 0u)
    OS_QInit();                                                  /* Initialize the message queue structures  */
    15ac:	5a5050ef          	jal	7350 <OS_QInit>
        return;
    }
#endif
#endif

    OS_InitTaskIdle();                                           /* Create the Idle Task                     */
    15b0:	6fd000ef          	jal	24ac <OS_InitTaskIdle>
#if OS_TASK_STAT_EN > 0u
    OS_InitTaskStat();                                           /* Create the Statistic Task                */
    15b4:	771000ef          	jal	2524 <OS_InitTaskStat>

#if OS_TMR_EN > 0u
    OSTmr_Init();                                                /* Initialize the Timer Manager             */
#endif

    OSInitHookEnd();                                             /* Call port specific init. code            */
    15b8:	6d40a0ef          	jal	bc8c <OSInitHookEnd>

#if OS_DEBUG_EN > 0u
    OSDebugInit();
    15bc:	20d010ef          	jal	2fc8 <OSDebugInit>
#endif
}
    15c0:	00000013          	nop
    15c4:	00c12083          	lw	ra,12(sp)
    15c8:	00812403          	lw	s0,8(sp)
    15cc:	01010113          	add	sp,sp,16
    15d0:	00008067          	ret

000015d4 <OSIntEnter>:
*                 OSIntEnter() is always called with interrupts disabled.
*********************************************************************************************************
*/

void  OSIntEnter (void)
{
    15d4:	ff010113          	add	sp,sp,-16
    15d8:	00812623          	sw	s0,12(sp)
    15dc:	01010413          	add	s0,sp,16
    if (OSRunning == OS_TRUE) {
    15e0:	000287b7          	lui	a5,0x28
    15e4:	8137c703          	lbu	a4,-2029(a5) # 27813 <OSRunning>
    15e8:	00100793          	li	a5,1
    15ec:	02f71663          	bne	a4,a5,1618 <OSIntEnter+0x44>
        if (OSIntNesting < 255u) {
    15f0:	000287b7          	lui	a5,0x28
    15f4:	8097c703          	lbu	a4,-2039(a5) # 27809 <OSIntNesting>
    15f8:	0ff00793          	li	a5,255
    15fc:	00f70e63          	beq	a4,a5,1618 <OSIntEnter+0x44>
            OSIntNesting++;                      /* Increment ISR nesting level                        */
    1600:	000287b7          	lui	a5,0x28
    1604:	8097c783          	lbu	a5,-2039(a5) # 27809 <OSIntNesting>
    1608:	00178793          	add	a5,a5,1
    160c:	0ff7f713          	zext.b	a4,a5
    1610:	000287b7          	lui	a5,0x28
    1614:	80e784a3          	sb	a4,-2039(a5) # 27809 <OSIntNesting>
        }
        OS_TRACE_ISR_ENTER();
    }
}
    1618:	00000013          	nop
    161c:	00c12403          	lw	s0,12(sp)
    1620:	01010113          	add	sp,sp,16
    1624:	00008067          	ret

00001628 <OSIntExit>:
*              2) Rescheduling is prevented when the scheduler is locked (see OS_SchedLock())
*********************************************************************************************************
*/

void  OSIntExit (void)
{
    1628:	fe010113          	add	sp,sp,-32
    162c:	00112e23          	sw	ra,28(sp)
    1630:	00812c23          	sw	s0,24(sp)
    1634:	02010413          	add	s0,sp,32
#if OS_CRITICAL_METHOD == 3u                               /* Allocate storage for CPU status register */
    OS_CPU_SR  cpu_sr = 0u;
    1638:	fe042623          	sw	zero,-20(s0)
#endif



    if (OSRunning == OS_TRUE) {
    163c:	000287b7          	lui	a5,0x28
    1640:	8137c703          	lbu	a4,-2029(a5) # 27813 <OSRunning>
    1644:	00100793          	li	a5,1
    1648:	0cf71c63          	bne	a4,a5,1720 <OSIntExit+0xf8>
    ABBOTTS_LAKE_READ_AND_CLR_CSR(ABBOTTS_LAKE_MSTATUS_CSR, context, ABBOTTS_LAKE_MSTATUS_MIE_MASK);
    164c:	00800793          	li	a5,8
    1650:	3007b7f3          	csrrc	a5,mstatus,a5
    1654:	fef42423          	sw	a5,-24(s0)
    return context;
    1658:	fe842783          	lw	a5,-24(s0)
        OS_ENTER_CRITICAL();
    165c:	fef42623          	sw	a5,-20(s0)
        if (OSIntNesting > 0u) {                           /* Prevent OSIntNesting from wrapping       */
    1660:	000287b7          	lui	a5,0x28
    1664:	8097c783          	lbu	a5,-2039(a5) # 27809 <OSIntNesting>
    1668:	00078e63          	beqz	a5,1684 <OSIntExit+0x5c>
            OSIntNesting--;
    166c:	000287b7          	lui	a5,0x28
    1670:	8097c783          	lbu	a5,-2039(a5) # 27809 <OSIntNesting>
    1674:	fff78793          	add	a5,a5,-1
    1678:	0ff7f713          	zext.b	a4,a5
    167c:	000287b7          	lui	a5,0x28
    1680:	80e784a3          	sb	a4,-2039(a5) # 27809 <OSIntNesting>
        }
        if (OSIntNesting == 0u) {                          /* Reschedule only if all ISRs complete ... */
    1684:	000287b7          	lui	a5,0x28
    1688:	8097c783          	lbu	a5,-2039(a5) # 27809 <OSIntNesting>
    168c:	06079e63          	bnez	a5,1708 <OSIntExit+0xe0>
            if (OSLockNesting == 0u) {                     /* ... and not locked.                      */
    1690:	000287b7          	lui	a5,0x28
    1694:	80a7c783          	lbu	a5,-2038(a5) # 2780a <OSLockNesting>
    1698:	06079863          	bnez	a5,1708 <OSIntExit+0xe0>
                OS_SchedNew();
    169c:	1d8010ef          	jal	2874 <OS_SchedNew>
                OSTCBHighRdy = OSTCBPrioTbl[OSPrioHighRdy];
    16a0:	000287b7          	lui	a5,0x28
    16a4:	80c7c783          	lbu	a5,-2036(a5) # 2780c <OSPrioHighRdy>
    16a8:	00078693          	mv	a3,a5
    16ac:	0002d7b7          	lui	a5,0x2d
    16b0:	fb878713          	add	a4,a5,-72 # 2cfb8 <OSTCBPrioTbl>
    16b4:	00269793          	sll	a5,a3,0x2
    16b8:	00f707b3          	add	a5,a4,a5
    16bc:	0007a703          	lw	a4,0(a5)
    16c0:	000287b7          	lui	a5,0x28
    16c4:	82e7a223          	sw	a4,-2012(a5) # 27824 <OSTCBHighRdy>
                if (OSPrioHighRdy != OSPrioCur) {          /* No Ctx Sw if current task is highest rdy */
    16c8:	000287b7          	lui	a5,0x28
    16cc:	80c7c703          	lbu	a4,-2036(a5) # 2780c <OSPrioHighRdy>
    16d0:	000287b7          	lui	a5,0x28
    16d4:	80b7c783          	lbu	a5,-2037(a5) # 2780b <OSPrioCur>
    16d8:	02f70863          	beq	a4,a5,1708 <OSIntExit+0xe0>
#if OS_TASK_PROFILE_EN > 0u
                    OSTCBHighRdy->OSTCBCtxSwCtr++;         /* Inc. # of context switches to this task  */
    16dc:	000287b7          	lui	a5,0x28
    16e0:	8247a783          	lw	a5,-2012(a5) # 27824 <OSTCBHighRdy>
    16e4:	0407a703          	lw	a4,64(a5)
    16e8:	00170713          	add	a4,a4,1
    16ec:	04e7a023          	sw	a4,64(a5)
#endif
                    OSCtxSwCtr++;                          /* Keep track of the number of ctx switches */
    16f0:	000277b7          	lui	a5,0x27
    16f4:	7f07a783          	lw	a5,2032(a5) # 277f0 <OSCtxSwCtr>
    16f8:	00178713          	add	a4,a5,1
    16fc:	000277b7          	lui	a5,0x27
    1700:	7ee7a823          	sw	a4,2032(a5) # 277f0 <OSCtxSwCtr>
                    OS_TLS_TaskSw();
#endif
#endif
                    OS_TRACE_ISR_EXIT_TO_SCHEDULER();

                    OSIntCtxSw();                          /* Perform interrupt level ctx switch       */
    1704:	618090ef          	jal	ad1c <OSCtxSw>
    1708:	fec42783          	lw	a5,-20(s0)
    170c:	fef42223          	sw	a5,-28(s0)
    ABBOTTS_LAKE_SET_CSR(ABBOTTS_LAKE_MSTATUS_CSR, context & ABBOTTS_LAKE_MSTATUS_MIE_MASK);
    1710:	fe442783          	lw	a5,-28(s0)
    1714:	0087f793          	and	a5,a5,8
    1718:	3007a073          	csrs	mstatus,a5
}
    171c:	00000013          	nop
            OS_TRACE_ISR_EXIT();
        }

        OS_EXIT_CRITICAL();
    }
}
    1720:	00000013          	nop
    1724:	01c12083          	lw	ra,28(sp)
    1728:	01812403          	lw	s0,24(sp)
    172c:	02010113          	add	sp,sp,32
    1730:	00008067          	ret

00001734 <OSSchedLock>:
*********************************************************************************************************
*/

#if OS_SCHED_LOCK_EN > 0u
void  OSSchedLock (void)
{
    1734:	fe010113          	add	sp,sp,-32
    1738:	00812e23          	sw	s0,28(sp)
    173c:	02010413          	add	s0,sp,32
#if OS_CRITICAL_METHOD == 3u                     /* Allocate storage for CPU status register           */
    OS_CPU_SR  cpu_sr = 0u;
    1740:	fe042623          	sw	zero,-20(s0)
#endif



    if (OSRunning == OS_TRUE) {                  /* Make sure multitasking is running                  */
    1744:	000287b7          	lui	a5,0x28
    1748:	8137c703          	lbu	a4,-2029(a5) # 27813 <OSRunning>
    174c:	00100793          	li	a5,1
    1750:	06f71263          	bne	a4,a5,17b4 <OSSchedLock+0x80>
    ABBOTTS_LAKE_READ_AND_CLR_CSR(ABBOTTS_LAKE_MSTATUS_CSR, context, ABBOTTS_LAKE_MSTATUS_MIE_MASK);
    1754:	00800793          	li	a5,8
    1758:	3007b7f3          	csrrc	a5,mstatus,a5
    175c:	fef42423          	sw	a5,-24(s0)
    return context;
    1760:	fe842783          	lw	a5,-24(s0)
        OS_ENTER_CRITICAL();
    1764:	fef42623          	sw	a5,-20(s0)
        if (OSIntNesting == 0u) {                /* Can't call from an ISR                             */
    1768:	000287b7          	lui	a5,0x28
    176c:	8097c783          	lbu	a5,-2039(a5) # 27809 <OSIntNesting>
    1770:	02079663          	bnez	a5,179c <OSSchedLock+0x68>
            if (OSLockNesting < 255u) {          /* Prevent OSLockNesting from wrapping back to 0      */
    1774:	000287b7          	lui	a5,0x28
    1778:	80a7c703          	lbu	a4,-2038(a5) # 2780a <OSLockNesting>
    177c:	0ff00793          	li	a5,255
    1780:	00f70e63          	beq	a4,a5,179c <OSSchedLock+0x68>
                OSLockNesting++;                 /* Increment lock nesting level                       */
    1784:	000287b7          	lui	a5,0x28
    1788:	80a7c783          	lbu	a5,-2038(a5) # 2780a <OSLockNesting>
    178c:	00178793          	add	a5,a5,1
    1790:	0ff7f713          	zext.b	a4,a5
    1794:	000287b7          	lui	a5,0x28
    1798:	80e78523          	sb	a4,-2038(a5) # 2780a <OSLockNesting>
    179c:	fec42783          	lw	a5,-20(s0)
    17a0:	fef42223          	sw	a5,-28(s0)
    ABBOTTS_LAKE_SET_CSR(ABBOTTS_LAKE_MSTATUS_CSR, context & ABBOTTS_LAKE_MSTATUS_MIE_MASK);
    17a4:	fe442783          	lw	a5,-28(s0)
    17a8:	0087f793          	and	a5,a5,8
    17ac:	3007a073          	csrs	mstatus,a5
}
    17b0:	00000013          	nop
            }
        }
        OS_EXIT_CRITICAL();
    }
}
    17b4:	00000013          	nop
    17b8:	01c12403          	lw	s0,28(sp)
    17bc:	02010113          	add	sp,sp,32
    17c0:	00008067          	ret

000017c4 <OSSchedUnlock>:
*********************************************************************************************************
*/

#if OS_SCHED_LOCK_EN > 0u
void  OSSchedUnlock (void)
{
    17c4:	fd010113          	add	sp,sp,-48
    17c8:	02112623          	sw	ra,44(sp)
    17cc:	02812423          	sw	s0,40(sp)
    17d0:	03010413          	add	s0,sp,48
#if OS_CRITICAL_METHOD == 3u                               /* Allocate storage for CPU status register */
    OS_CPU_SR  cpu_sr = 0u;
    17d4:	fe042623          	sw	zero,-20(s0)
#endif



    if (OSRunning == OS_TRUE) {                            /* Make sure multitasking is running        */
    17d8:	000287b7          	lui	a5,0x28
    17dc:	8137c703          	lbu	a4,-2029(a5) # 27813 <OSRunning>
    17e0:	00100793          	li	a5,1
    17e4:	0af71e63          	bne	a4,a5,18a0 <OSSchedUnlock+0xdc>
    ABBOTTS_LAKE_READ_AND_CLR_CSR(ABBOTTS_LAKE_MSTATUS_CSR, context, ABBOTTS_LAKE_MSTATUS_MIE_MASK);
    17e8:	00800793          	li	a5,8
    17ec:	3007b7f3          	csrrc	a5,mstatus,a5
    17f0:	fef42423          	sw	a5,-24(s0)
    return context;
    17f4:	fe842783          	lw	a5,-24(s0)
        OS_ENTER_CRITICAL();
    17f8:	fef42623          	sw	a5,-20(s0)
        if (OSIntNesting == 0u) {                          /* Can't call from an ISR                   */
    17fc:	000287b7          	lui	a5,0x28
    1800:	8097c783          	lbu	a5,-2039(a5) # 27809 <OSIntNesting>
    1804:	08079263          	bnez	a5,1888 <OSSchedUnlock+0xc4>
            if (OSLockNesting > 0u) {                      /* Do not decrement if already 0            */
    1808:	000287b7          	lui	a5,0x28
    180c:	80a7c783          	lbu	a5,-2038(a5) # 2780a <OSLockNesting>
    1810:	06078063          	beqz	a5,1870 <OSSchedUnlock+0xac>
                OSLockNesting--;                           /* Decrement lock nesting level             */
    1814:	000287b7          	lui	a5,0x28
    1818:	80a7c783          	lbu	a5,-2038(a5) # 2780a <OSLockNesting>
    181c:	fff78793          	add	a5,a5,-1
    1820:	0ff7f713          	zext.b	a4,a5
    1824:	000287b7          	lui	a5,0x28
    1828:	80e78523          	sb	a4,-2038(a5) # 2780a <OSLockNesting>
                if (OSLockNesting == 0u) {                 /* See if scheduler is enabled              */
    182c:	000287b7          	lui	a5,0x28
    1830:	80a7c783          	lbu	a5,-2038(a5) # 2780a <OSLockNesting>
    1834:	02079263          	bnez	a5,1858 <OSSchedUnlock+0x94>
    1838:	fec42783          	lw	a5,-20(s0)
    183c:	fef42223          	sw	a5,-28(s0)
    ABBOTTS_LAKE_SET_CSR(ABBOTTS_LAKE_MSTATUS_CSR, context & ABBOTTS_LAKE_MSTATUS_MIE_MASK);
    1840:	fe442783          	lw	a5,-28(s0)
    1844:	0087f793          	and	a5,a5,8
    1848:	3007a073          	csrs	mstatus,a5
}
    184c:	00000013          	nop
                    OS_EXIT_CRITICAL();
                    OS_Sched();                            /* See if a HPT is ready                    */
    1850:	74d000ef          	jal	279c <OS_Sched>
            }
        } else {
            OS_EXIT_CRITICAL();
        }
    }
}
    1854:	04c0006f          	j	18a0 <OSSchedUnlock+0xdc>
    1858:	fec42783          	lw	a5,-20(s0)
    185c:	fef42023          	sw	a5,-32(s0)
    ABBOTTS_LAKE_SET_CSR(ABBOTTS_LAKE_MSTATUS_CSR, context & ABBOTTS_LAKE_MSTATUS_MIE_MASK);
    1860:	fe042783          	lw	a5,-32(s0)
    1864:	0087f793          	and	a5,a5,8
    1868:	3007a073          	csrs	mstatus,a5
}
    186c:	0340006f          	j	18a0 <OSSchedUnlock+0xdc>
    1870:	fec42783          	lw	a5,-20(s0)
    1874:	fcf42e23          	sw	a5,-36(s0)
    ABBOTTS_LAKE_SET_CSR(ABBOTTS_LAKE_MSTATUS_CSR, context & ABBOTTS_LAKE_MSTATUS_MIE_MASK);
    1878:	fdc42783          	lw	a5,-36(s0)
    187c:	0087f793          	and	a5,a5,8
    1880:	3007a073          	csrs	mstatus,a5
}
    1884:	01c0006f          	j	18a0 <OSSchedUnlock+0xdc>
    1888:	fec42783          	lw	a5,-20(s0)
    188c:	fcf42c23          	sw	a5,-40(s0)
    ABBOTTS_LAKE_SET_CSR(ABBOTTS_LAKE_MSTATUS_CSR, context & ABBOTTS_LAKE_MSTATUS_MIE_MASK);
    1890:	fd842783          	lw	a5,-40(s0)
    1894:	0087f793          	and	a5,a5,8
    1898:	3007a073          	csrs	mstatus,a5
}
    189c:	00000013          	nop
    18a0:	00000013          	nop
    18a4:	02c12083          	lw	ra,44(sp)
    18a8:	02812403          	lw	s0,40(sp)
    18ac:	03010113          	add	sp,sp,48
    18b0:	00008067          	ret

000018b4 <OSStart>:
*                 d_ Execute the task.
*********************************************************************************************************
*/

void  OSStart (void)
{
    18b4:	ff010113          	add	sp,sp,-16
    18b8:	00112623          	sw	ra,12(sp)
    18bc:	00812423          	sw	s0,8(sp)
    18c0:	01010413          	add	s0,sp,16
    if (OSRunning == OS_FALSE) {
    18c4:	000287b7          	lui	a5,0x28
    18c8:	8137c783          	lbu	a5,-2029(a5) # 27813 <OSRunning>
    18cc:	04079a63          	bnez	a5,1920 <OSStart+0x6c>
        OS_SchedNew();                               /* Find highest priority's task priority number   */
    18d0:	7a5000ef          	jal	2874 <OS_SchedNew>
        OSPrioCur     = OSPrioHighRdy;
    18d4:	000287b7          	lui	a5,0x28
    18d8:	80c7c703          	lbu	a4,-2036(a5) # 2780c <OSPrioHighRdy>
    18dc:	000287b7          	lui	a5,0x28
    18e0:	80e785a3          	sb	a4,-2037(a5) # 2780b <OSPrioCur>
        OSTCBHighRdy  = OSTCBPrioTbl[OSPrioHighRdy]; /* Point to highest priority task ready to run    */
    18e4:	000287b7          	lui	a5,0x28
    18e8:	80c7c783          	lbu	a5,-2036(a5) # 2780c <OSPrioHighRdy>
    18ec:	00078693          	mv	a3,a5
    18f0:	0002d7b7          	lui	a5,0x2d
    18f4:	fb878713          	add	a4,a5,-72 # 2cfb8 <OSTCBPrioTbl>
    18f8:	00269793          	sll	a5,a3,0x2
    18fc:	00f707b3          	add	a5,a4,a5
    1900:	0007a703          	lw	a4,0(a5)
    1904:	000287b7          	lui	a5,0x28
    1908:	82e7a223          	sw	a4,-2012(a5) # 27824 <OSTCBHighRdy>
        OSTCBCur      = OSTCBHighRdy;
    190c:	000287b7          	lui	a5,0x28
    1910:	8247a703          	lw	a4,-2012(a5) # 27824 <OSTCBHighRdy>
    1914:	000287b7          	lui	a5,0x28
    1918:	80e7ae23          	sw	a4,-2020(a5) # 2781c <OSTCBCur>
        OSStartHighRdy();                            /* Execute target specific code to start task     */
    191c:	4d4090ef          	jal	adf0 <OSStartHighRdy>
    }
}
    1920:	00000013          	nop
    1924:	00c12083          	lw	ra,12(sp)
    1928:	00812403          	lw	s0,8(sp)
    192c:	01010113          	add	sp,sp,16
    1930:	00008067          	ret

00001934 <OSStatInit>:
*********************************************************************************************************
*/

#if OS_TASK_STAT_EN > 0u
void  OSStatInit (void)
{
    1934:	fd010113          	add	sp,sp,-48
    1938:	02112623          	sw	ra,44(sp)
    193c:	02812423          	sw	s0,40(sp)
    1940:	03010413          	add	s0,sp,48
#if OS_CRITICAL_METHOD == 3u                     /* Allocate storage for CPU status register           */
    OS_CPU_SR  cpu_sr = 0u;
    1944:	fe042623          	sw	zero,-20(s0)
#endif



    OSTimeDly(2u);                               /* Synchronize with clock tick                        */
    1948:	00200513          	li	a0,2
    194c:	7e9070ef          	jal	9934 <OSTimeDly>
    ABBOTTS_LAKE_READ_AND_CLR_CSR(ABBOTTS_LAKE_MSTATUS_CSR, context, ABBOTTS_LAKE_MSTATUS_MIE_MASK);
    1950:	00800793          	li	a5,8
    1954:	3007b7f3          	csrrc	a5,mstatus,a5
    1958:	fcf42e23          	sw	a5,-36(s0)
    return context;
    195c:	fdc42783          	lw	a5,-36(s0)
    OS_ENTER_CRITICAL();
    1960:	fef42623          	sw	a5,-20(s0)
    OSIdleCtr    = 0uL;                          /* Clear idle counter                                 */
    1964:	000287b7          	lui	a5,0x28
    1968:	8007ac23          	sw	zero,-2024(a5) # 27818 <OSIdleCtr>
    196c:	fec42783          	lw	a5,-20(s0)
    1970:	fef42023          	sw	a5,-32(s0)
    ABBOTTS_LAKE_SET_CSR(ABBOTTS_LAKE_MSTATUS_CSR, context & ABBOTTS_LAKE_MSTATUS_MIE_MASK);
    1974:	fe042783          	lw	a5,-32(s0)
    1978:	0087f793          	and	a5,a5,8
    197c:	3007a073          	csrs	mstatus,a5
}
    1980:	00000013          	nop
    OS_EXIT_CRITICAL();
    OSTimeDly(OS_TICKS_PER_SEC / 10u);           /* Determine MAX. idle counter value for 1/10 second  */
    1984:	06400513          	li	a0,100
    1988:	7ad070ef          	jal	9934 <OSTimeDly>
    ABBOTTS_LAKE_READ_AND_CLR_CSR(ABBOTTS_LAKE_MSTATUS_CSR, context, ABBOTTS_LAKE_MSTATUS_MIE_MASK);
    198c:	00800793          	li	a5,8
    1990:	3007b7f3          	csrrc	a5,mstatus,a5
    1994:	fef42223          	sw	a5,-28(s0)
    return context;
    1998:	fe442783          	lw	a5,-28(s0)
    OS_ENTER_CRITICAL();
    199c:	fef42623          	sw	a5,-20(s0)
    OSIdleCtrMax = OSIdleCtr;                    /* Store maximum idle counter count in 1/10 second    */
    19a0:	000287b7          	lui	a5,0x28
    19a4:	8187a703          	lw	a4,-2024(a5) # 27818 <OSIdleCtr>
    19a8:	000287b7          	lui	a5,0x28
    19ac:	80e7a023          	sw	a4,-2048(a5) # 27800 <OSIdleCtrMax>
    OSStatRdy    = OS_TRUE;
    19b0:	000287b7          	lui	a5,0x28
    19b4:	00100713          	li	a4,1
    19b8:	80e78423          	sb	a4,-2040(a5) # 27808 <OSStatRdy>
    19bc:	fec42783          	lw	a5,-20(s0)
    19c0:	fef42423          	sw	a5,-24(s0)
    ABBOTTS_LAKE_SET_CSR(ABBOTTS_LAKE_MSTATUS_CSR, context & ABBOTTS_LAKE_MSTATUS_MIE_MASK);
    19c4:	fe842783          	lw	a5,-24(s0)
    19c8:	0087f793          	and	a5,a5,8
    19cc:	3007a073          	csrs	mstatus,a5
}
    19d0:	00000013          	nop
    OS_EXIT_CRITICAL();
}
    19d4:	00000013          	nop
    19d8:	02c12083          	lw	ra,44(sp)
    19dc:	02812403          	lw	s0,40(sp)
    19e0:	03010113          	add	sp,sp,48
    19e4:	00008067          	ret

000019e8 <OSTimeTick>:
* Returns    : none
*********************************************************************************************************
*/

void  OSTimeTick (void)
{
    19e8:	fd010113          	add	sp,sp,-48
    19ec:	02112623          	sw	ra,44(sp)
    19f0:	02812423          	sw	s0,40(sp)
    19f4:	03010413          	add	s0,sp,48
    OS_TCB    *ptcb;
#if OS_TICK_STEP_EN > 0u
    BOOLEAN    step;
#endif
#if OS_CRITICAL_METHOD == 3u                               /* Allocate storage for CPU status register     */
    OS_CPU_SR  cpu_sr = 0u;
    19f8:	fe042223          	sw	zero,-28(s0)
#endif



#if OS_TIME_TICK_HOOK_EN > 0u
    OSTimeTickHook();                                      /* Call user definable hook                     */
    19fc:	2580a0ef          	jal	bc54 <OSTimeTickHook>
    ABBOTTS_LAKE_READ_AND_CLR_CSR(ABBOTTS_LAKE_MSTATUS_CSR, context, ABBOTTS_LAKE_MSTATUS_MIE_MASK);
    1a00:	00800793          	li	a5,8
    1a04:	3007b7f3          	csrrc	a5,mstatus,a5
    1a08:	fcf42e23          	sw	a5,-36(s0)
    return context;
    1a0c:	fdc42783          	lw	a5,-36(s0)
#endif
#if OS_TIME_GET_SET_EN > 0u
    OS_ENTER_CRITICAL();                                   /* Update the 32-bit tick counter               */
    1a10:	fef42223          	sw	a5,-28(s0)
    OSTime++;
    1a14:	000287b7          	lui	a5,0x28
    1a18:	83c7a783          	lw	a5,-1988(a5) # 2783c <OSTime>
    1a1c:	00178713          	add	a4,a5,1
    1a20:	000287b7          	lui	a5,0x28
    1a24:	82e7ae23          	sw	a4,-1988(a5) # 2783c <OSTime>
    1a28:	fe442783          	lw	a5,-28(s0)
    1a2c:	fef42023          	sw	a5,-32(s0)
    ABBOTTS_LAKE_SET_CSR(ABBOTTS_LAKE_MSTATUS_CSR, context & ABBOTTS_LAKE_MSTATUS_MIE_MASK);
    1a30:	fe042783          	lw	a5,-32(s0)
    1a34:	0087f793          	and	a5,a5,8
    1a38:	3007a073          	csrs	mstatus,a5
}
    1a3c:	00000013          	nop
    OS_TRACE_TICK_INCREMENT(OSTime);
    OS_EXIT_CRITICAL();
#endif
    if (OSRunning == OS_TRUE) {
    1a40:	000287b7          	lui	a5,0x28
    1a44:	8137c703          	lbu	a4,-2029(a5) # 27813 <OSRunning>
    1a48:	00100793          	li	a5,1
    1a4c:	1af71a63          	bne	a4,a5,1c00 <OSTimeTick+0x218>
#if OS_TICK_STEP_EN > 0u
        switch (OSTickStepState) {                         /* Determine whether we need to process a tick  */
    1a50:	000287b7          	lui	a5,0x28
    1a54:	82c7c783          	lbu	a5,-2004(a5) # 2782c <OSTickStepState>
    1a58:	00200713          	li	a4,2
    1a5c:	02e78863          	beq	a5,a4,1a8c <OSTimeTick+0xa4>
    1a60:	00200713          	li	a4,2
    1a64:	04f74063          	blt	a4,a5,1aa4 <OSTimeTick+0xbc>
    1a68:	00078863          	beqz	a5,1a78 <OSTimeTick+0x90>
    1a6c:	00100713          	li	a4,1
    1a70:	00e78a63          	beq	a5,a4,1a84 <OSTimeTick+0x9c>
    1a74:	0300006f          	j	1aa4 <OSTimeTick+0xbc>
            case OS_TICK_STEP_DIS:                         /* Yes, stepping is disabled                    */
                 step = OS_TRUE;
    1a78:	00100793          	li	a5,1
    1a7c:	fef405a3          	sb	a5,-21(s0)
                 break;
    1a80:	0380006f          	j	1ab8 <OSTimeTick+0xd0>

            case OS_TICK_STEP_WAIT:                        /* No,  waiting for uC/OS-View to set ...       */
                 step = OS_FALSE;                          /*      .. OSTickStepState to OS_TICK_STEP_ONCE */
    1a84:	fe0405a3          	sb	zero,-21(s0)
                 break;
    1a88:	0300006f          	j	1ab8 <OSTimeTick+0xd0>

            case OS_TICK_STEP_ONCE:                        /* Yes, process tick once and wait for next ... */
                 step            = OS_TRUE;                /*      ... step command from uC/OS-View        */
    1a8c:	00100793          	li	a5,1
    1a90:	fef405a3          	sb	a5,-21(s0)
                 OSTickStepState = OS_TICK_STEP_WAIT;
    1a94:	000287b7          	lui	a5,0x28
    1a98:	00100713          	li	a4,1
    1a9c:	82e78623          	sb	a4,-2004(a5) # 2782c <OSTickStepState>
                 break;
    1aa0:	0180006f          	j	1ab8 <OSTimeTick+0xd0>

            default:                                       /* Invalid case, correct situation              */
                 step            = OS_TRUE;
    1aa4:	00100793          	li	a5,1
    1aa8:	fef405a3          	sb	a5,-21(s0)
                 OSTickStepState = OS_TICK_STEP_DIS;
    1aac:	000287b7          	lui	a5,0x28
    1ab0:	82078623          	sb	zero,-2004(a5) # 2782c <OSTickStepState>
                 break;
    1ab4:	00000013          	nop
        }
        if (step == OS_FALSE) {                            /* Return if waiting for step command           */
    1ab8:	feb44783          	lbu	a5,-21(s0)
    1abc:	14078063          	beqz	a5,1bfc <OSTimeTick+0x214>
            return;
        }
#endif
        ptcb = OSTCBList;                                  /* Point at first TCB in TCB list               */
    1ac0:	000287b7          	lui	a5,0x28
    1ac4:	8287a783          	lw	a5,-2008(a5) # 27828 <OSTCBList>
    1ac8:	fef42623          	sw	a5,-20(s0)
        while (ptcb->OSTCBPrio != OS_TASK_IDLE_PRIO) {     /* Go through all TCBs in TCB list              */
    1acc:	11c0006f          	j	1be8 <OSTimeTick+0x200>
    ABBOTTS_LAKE_READ_AND_CLR_CSR(ABBOTTS_LAKE_MSTATUS_CSR, context, ABBOTTS_LAKE_MSTATUS_MIE_MASK);
    1ad0:	00800793          	li	a5,8
    1ad4:	3007b7f3          	csrrc	a5,mstatus,a5
    1ad8:	fcf42c23          	sw	a5,-40(s0)
    return context;
    1adc:	fd842783          	lw	a5,-40(s0)
            OS_ENTER_CRITICAL();
    1ae0:	fef42223          	sw	a5,-28(s0)
            if (ptcb->OSTCBDly != 0u) {                    /* No, Delayed or waiting for event with TO     */
    1ae4:	fec42783          	lw	a5,-20(s0)
    1ae8:	0347a783          	lw	a5,52(a5)
    1aec:	0c078c63          	beqz	a5,1bc4 <OSTimeTick+0x1dc>
                ptcb->OSTCBDly--;                          /* Decrement nbr of ticks to end of delay       */
    1af0:	fec42783          	lw	a5,-20(s0)
    1af4:	0347a783          	lw	a5,52(a5)
    1af8:	fff78713          	add	a4,a5,-1
    1afc:	fec42783          	lw	a5,-20(s0)
    1b00:	02e7aa23          	sw	a4,52(a5)
                if (ptcb->OSTCBDly == 0u) {                /* Check for timeout                            */
    1b04:	fec42783          	lw	a5,-20(s0)
    1b08:	0347a783          	lw	a5,52(a5)
    1b0c:	0a079c63          	bnez	a5,1bc4 <OSTimeTick+0x1dc>

                    if ((ptcb->OSTCBStat & OS_STAT_PEND_ANY) != OS_STAT_RDY) {
    1b10:	fec42783          	lw	a5,-20(s0)
    1b14:	0387c783          	lbu	a5,56(a5)
    1b18:	0377f793          	and	a5,a5,55
    1b1c:	02078663          	beqz	a5,1b48 <OSTimeTick+0x160>
                        ptcb->OSTCBStat  &= (INT8U)~(INT8U)OS_STAT_PEND_ANY;   /* Yes, Clear status flag   */
    1b20:	fec42783          	lw	a5,-20(s0)
    1b24:	0387c783          	lbu	a5,56(a5)
    1b28:	fc87f793          	and	a5,a5,-56
    1b2c:	0ff7f713          	zext.b	a4,a5
    1b30:	fec42783          	lw	a5,-20(s0)
    1b34:	02e78c23          	sb	a4,56(a5)
                        ptcb->OSTCBStatPend = OS_STAT_PEND_TO;                 /* Indicate PEND timeout    */
    1b38:	fec42783          	lw	a5,-20(s0)
    1b3c:	00100713          	li	a4,1
    1b40:	02e78ca3          	sb	a4,57(a5)
    1b44:	00c0006f          	j	1b50 <OSTimeTick+0x168>
                    } else {
                        ptcb->OSTCBStatPend = OS_STAT_PEND_OK;
    1b48:	fec42783          	lw	a5,-20(s0)
    1b4c:	02078ca3          	sb	zero,57(a5)
                    }

                    if ((ptcb->OSTCBStat & OS_STAT_SUSPEND) == OS_STAT_RDY) {  /* Is task suspended?       */
    1b50:	fec42783          	lw	a5,-20(s0)
    1b54:	0387c783          	lbu	a5,56(a5)
    1b58:	0087f793          	and	a5,a5,8
    1b5c:	06079463          	bnez	a5,1bc4 <OSTimeTick+0x1dc>
                        OSRdyGrp               |= ptcb->OSTCBBitY;             /* No,  Make ready          */
    1b60:	fec42783          	lw	a5,-20(s0)
    1b64:	03e7c703          	lbu	a4,62(a5)
    1b68:	000287b7          	lui	a5,0x28
    1b6c:	80d7c783          	lbu	a5,-2035(a5) # 2780d <OSRdyGrp>
    1b70:	00f767b3          	or	a5,a4,a5
    1b74:	0ff7f713          	zext.b	a4,a5
    1b78:	000287b7          	lui	a5,0x28
    1b7c:	80e786a3          	sb	a4,-2035(a5) # 2780d <OSRdyGrp>
                        OSRdyTbl[ptcb->OSTCBY] |= ptcb->OSTCBBitX;
    1b80:	fec42783          	lw	a5,-20(s0)
    1b84:	03c7c783          	lbu	a5,60(a5)
    1b88:	00078713          	mv	a4,a5
    1b8c:	000287b7          	lui	a5,0x28
    1b90:	81078793          	add	a5,a5,-2032 # 27810 <OSRdyTbl>
    1b94:	00f707b3          	add	a5,a4,a5
    1b98:	0007c703          	lbu	a4,0(a5)
    1b9c:	fec42783          	lw	a5,-20(s0)
    1ba0:	03d7c783          	lbu	a5,61(a5)
    1ba4:	fec42683          	lw	a3,-20(s0)
    1ba8:	03c6c683          	lbu	a3,60(a3)
    1bac:	00f767b3          	or	a5,a4,a5
    1bb0:	0ff7f713          	zext.b	a4,a5
    1bb4:	000287b7          	lui	a5,0x28
    1bb8:	81078793          	add	a5,a5,-2032 # 27810 <OSRdyTbl>
    1bbc:	00f687b3          	add	a5,a3,a5
    1bc0:	00e78023          	sb	a4,0(a5)
                        OS_TRACE_TASK_READY(ptcb);
                    }
                }
            }
            ptcb = ptcb->OSTCBNext;                        /* Point at next TCB in TCB list                */
    1bc4:	fec42783          	lw	a5,-20(s0)
    1bc8:	0147a783          	lw	a5,20(a5)
    1bcc:	fef42623          	sw	a5,-20(s0)
    1bd0:	fe442783          	lw	a5,-28(s0)
    1bd4:	fcf42a23          	sw	a5,-44(s0)
    ABBOTTS_LAKE_SET_CSR(ABBOTTS_LAKE_MSTATUS_CSR, context & ABBOTTS_LAKE_MSTATUS_MIE_MASK);
    1bd8:	fd442783          	lw	a5,-44(s0)
    1bdc:	0087f793          	and	a5,a5,8
    1be0:	3007a073          	csrs	mstatus,a5
}
    1be4:	00000013          	nop
        while (ptcb->OSTCBPrio != OS_TASK_IDLE_PRIO) {     /* Go through all TCBs in TCB list              */
    1be8:	fec42783          	lw	a5,-20(s0)
    1bec:	03a7c703          	lbu	a4,58(a5)
    1bf0:	01400793          	li	a5,20
    1bf4:	ecf71ee3          	bne	a4,a5,1ad0 <OSTimeTick+0xe8>
    1bf8:	0080006f          	j	1c00 <OSTimeTick+0x218>
            return;
    1bfc:	00000013          	nop
            OS_EXIT_CRITICAL();
        }
    }
}
    1c00:	02c12083          	lw	ra,44(sp)
    1c04:	02812403          	lw	s0,40(sp)
    1c08:	03010113          	add	sp,sp,48
    1c0c:	00008067          	ret

00001c10 <OSVersion>:
* Returns    : The version number of uC/OS-II multiplied by 10000.
*********************************************************************************************************
*/

INT16U  OSVersion (void)
{
    1c10:	ff010113          	add	sp,sp,-16
    1c14:	00812623          	sw	s0,12(sp)
    1c18:	01010413          	add	s0,sp,16
    return (OS_VERSION);
    1c1c:	000077b7          	lui	a5,0x7
    1c20:	27478793          	add	a5,a5,628 # 7274 <OSQQuery+0x74>
}
    1c24:	00078513          	mv	a0,a5
    1c28:	00c12403          	lw	s0,12(sp)
    1c2c:	01010113          	add	sp,sp,16
    1c30:	00008067          	ret

00001c34 <OS_Dummy>:
*********************************************************************************************************
*/

#if OS_TASK_DEL_EN > 0u
void  OS_Dummy (void)
{
    1c34:	ff010113          	add	sp,sp,-16
    1c38:	00812623          	sw	s0,12(sp)
    1c3c:	01010413          	add	s0,sp,16
}
    1c40:	00000013          	nop
    1c44:	00c12403          	lw	s0,12(sp)
    1c48:	01010113          	add	sp,sp,16
    1c4c:	00008067          	ret

00001c50 <OS_EventTaskRdy>:
#if (OS_EVENT_EN)
INT8U  OS_EventTaskRdy (OS_EVENT  *pevent,
                        void      *pmsg,
                        INT8U      msk,
                        INT8U      pend_stat)
{
    1c50:	fd010113          	add	sp,sp,-48
    1c54:	02112623          	sw	ra,44(sp)
    1c58:	02812423          	sw	s0,40(sp)
    1c5c:	03010413          	add	s0,sp,48
    1c60:	fca42e23          	sw	a0,-36(s0)
    1c64:	fcb42c23          	sw	a1,-40(s0)
    1c68:	00060793          	mv	a5,a2
    1c6c:	00068713          	mv	a4,a3
    1c70:	fcf40ba3          	sb	a5,-41(s0)
    1c74:	00070793          	mv	a5,a4
    1c78:	fcf40b23          	sb	a5,-42(s0)
    OS_PRIO  *ptbl;
#endif


#if OS_LOWEST_PRIO <= 63u
    y    = OSUnMapTbl[pevent->OSEventGrp];              /* Find HPT waiting for message                */
    1c7c:	fdc42783          	lw	a5,-36(s0)
    1c80:	00a7c783          	lbu	a5,10(a5)
    1c84:	00078713          	mv	a4,a5
    1c88:	000237b7          	lui	a5,0x23
    1c8c:	f6478793          	add	a5,a5,-156 # 22f64 <OSUnMapTbl>
    1c90:	00e787b3          	add	a5,a5,a4
    1c94:	0007c783          	lbu	a5,0(a5)
    1c98:	fef407a3          	sb	a5,-17(s0)
    x    = OSUnMapTbl[pevent->OSEventTbl[y]];
    1c9c:	fef44783          	lbu	a5,-17(s0)
    1ca0:	fdc42703          	lw	a4,-36(s0)
    1ca4:	00f707b3          	add	a5,a4,a5
    1ca8:	00b7c783          	lbu	a5,11(a5)
    1cac:	00078713          	mv	a4,a5
    1cb0:	000237b7          	lui	a5,0x23
    1cb4:	f6478793          	add	a5,a5,-156 # 22f64 <OSUnMapTbl>
    1cb8:	00e787b3          	add	a5,a5,a4
    1cbc:	0007c783          	lbu	a5,0(a5)
    1cc0:	fef40723          	sb	a5,-18(s0)
    prio = (INT8U)((y << 3u) + x);                      /* Find priority of task getting the msg       */
    1cc4:	fef44783          	lbu	a5,-17(s0)
    1cc8:	00379793          	sll	a5,a5,0x3
    1ccc:	0ff7f793          	zext.b	a5,a5
    1cd0:	fee44703          	lbu	a4,-18(s0)
    1cd4:	00e787b3          	add	a5,a5,a4
    1cd8:	fef406a3          	sb	a5,-19(s0)
        x = OSUnMapTbl[(OS_PRIO)(*ptbl >> 8u) & 0xFFu] + 8u;
    }
    prio = (INT8U)((y << 4u) + x);                      /* Find priority of task getting the msg       */
#endif

    ptcb                  =  OSTCBPrioTbl[prio];        /* Point to this task's OS_TCB                 */
    1cdc:	fed44783          	lbu	a5,-19(s0)
    1ce0:	0002d737          	lui	a4,0x2d
    1ce4:	fb870713          	add	a4,a4,-72 # 2cfb8 <OSTCBPrioTbl>
    1ce8:	00279793          	sll	a5,a5,0x2
    1cec:	00f707b3          	add	a5,a4,a5
    1cf0:	0007a783          	lw	a5,0(a5)
    1cf4:	fef42423          	sw	a5,-24(s0)
    ptcb->OSTCBDly        =  0u;                        /* Prevent OSTimeTick() from readying task     */
    1cf8:	fe842783          	lw	a5,-24(s0)
    1cfc:	0207aa23          	sw	zero,52(a5)
#if ((OS_Q_EN > 0u) && (OS_MAX_QS > 0u)) || (OS_MBOX_EN > 0u)
    ptcb->OSTCBMsg        =  pmsg;                      /* Send message directly to waiting task       */
    1d00:	fe842783          	lw	a5,-24(s0)
    1d04:	fd842703          	lw	a4,-40(s0)
    1d08:	02e7a423          	sw	a4,40(a5)
#else
    pmsg                  =  pmsg;                      /* Prevent compiler warning if not used        */
#endif
    ptcb->OSTCBStat      &= (INT8U)~msk;                /* Clear bit associated with event type        */
    1d0c:	fe842783          	lw	a5,-24(s0)
    1d10:	0387c703          	lbu	a4,56(a5)
    1d14:	fd744783          	lbu	a5,-41(s0)
    1d18:	fff7c793          	not	a5,a5
    1d1c:	0ff7f793          	zext.b	a5,a5
    1d20:	00f777b3          	and	a5,a4,a5
    1d24:	0ff7f713          	zext.b	a4,a5
    1d28:	fe842783          	lw	a5,-24(s0)
    1d2c:	02e78c23          	sb	a4,56(a5)
    ptcb->OSTCBStatPend   =  pend_stat;                 /* Set pend status of post or abort            */
    1d30:	fe842783          	lw	a5,-24(s0)
    1d34:	fd644703          	lbu	a4,-42(s0)
    1d38:	02e78ca3          	sb	a4,57(a5)
                                                        /* See if task is ready (could be susp'd)      */
    if ((ptcb->OSTCBStat &   OS_STAT_SUSPEND) == OS_STAT_RDY) {
    1d3c:	fe842783          	lw	a5,-24(s0)
    1d40:	0387c783          	lbu	a5,56(a5)
    1d44:	0087f793          	and	a5,a5,8
    1d48:	04079e63          	bnez	a5,1da4 <OS_EventTaskRdy+0x154>
        OSRdyGrp         |=  ptcb->OSTCBBitY;           /* Put task in the ready to run list           */
    1d4c:	fe842783          	lw	a5,-24(s0)
    1d50:	03e7c703          	lbu	a4,62(a5)
    1d54:	000287b7          	lui	a5,0x28
    1d58:	80d7c783          	lbu	a5,-2035(a5) # 2780d <OSRdyGrp>
    1d5c:	00f767b3          	or	a5,a4,a5
    1d60:	0ff7f713          	zext.b	a4,a5
    1d64:	000287b7          	lui	a5,0x28
    1d68:	80e786a3          	sb	a4,-2035(a5) # 2780d <OSRdyGrp>
        OSRdyTbl[y]      |=  ptcb->OSTCBBitX;
    1d6c:	fef44703          	lbu	a4,-17(s0)
    1d70:	000287b7          	lui	a5,0x28
    1d74:	81078793          	add	a5,a5,-2032 # 27810 <OSRdyTbl>
    1d78:	00f707b3          	add	a5,a4,a5
    1d7c:	0007c703          	lbu	a4,0(a5)
    1d80:	fe842783          	lw	a5,-24(s0)
    1d84:	03d7c783          	lbu	a5,61(a5)
    1d88:	fef44683          	lbu	a3,-17(s0)
    1d8c:	00f767b3          	or	a5,a4,a5
    1d90:	0ff7f713          	zext.b	a4,a5
    1d94:	000287b7          	lui	a5,0x28
    1d98:	81078793          	add	a5,a5,-2032 # 27810 <OSRdyTbl>
    1d9c:	00f687b3          	add	a5,a3,a5
    1da0:	00e78023          	sb	a4,0(a5)
        OS_TRACE_TASK_READY(ptcb);
    }

    OS_EventTaskRemove(ptcb, pevent);                   /* Remove this task from event   wait list     */
    1da4:	fdc42583          	lw	a1,-36(s0)
    1da8:	fe842503          	lw	a0,-24(s0)
    1dac:	2fc000ef          	jal	20a8 <OS_EventTaskRemove>
#if (OS_EVENT_MULTI_EN > 0u)
    if (ptcb->OSTCBEventMultiPtr != (OS_EVENT **)0) {   /* Remove this task from events' wait lists    */
    1db0:	fe842783          	lw	a5,-24(s0)
    1db4:	0207a783          	lw	a5,32(a5)
    1db8:	02078663          	beqz	a5,1de4 <OS_EventTaskRdy+0x194>
        OS_EventTaskRemoveMulti(ptcb, ptcb->OSTCBEventMultiPtr);
    1dbc:	fe842783          	lw	a5,-24(s0)
    1dc0:	0207a783          	lw	a5,32(a5)
    1dc4:	00078593          	mv	a1,a5
    1dc8:	fe842503          	lw	a0,-24(s0)
    1dcc:	388000ef          	jal	2154 <OS_EventTaskRemoveMulti>
        ptcb->OSTCBEventMultiPtr  = (OS_EVENT **)0;     /* No longer pending on multi list             */
    1dd0:	fe842783          	lw	a5,-24(s0)
    1dd4:	0207a023          	sw	zero,32(a5)
        ptcb->OSTCBEventMultiRdy  = (OS_EVENT  *)pevent;/* Return event as first multi-pend event ready*/
    1dd8:	fe842783          	lw	a5,-24(s0)
    1ddc:	fdc42703          	lw	a4,-36(s0)
    1de0:	02e7a223          	sw	a4,36(a5)
    }
#endif

    return (prio);
    1de4:	fed44783          	lbu	a5,-19(s0)
}
    1de8:	00078513          	mv	a0,a5
    1dec:	02c12083          	lw	ra,44(sp)
    1df0:	02812403          	lw	s0,40(sp)
    1df4:	03010113          	add	sp,sp,48
    1df8:	00008067          	ret

00001dfc <OS_EventTaskWait>:
* Note       : This function is INTERNAL to uC/OS-II and your application should not call it.
*********************************************************************************************************
*/
#if (OS_EVENT_EN)
void  OS_EventTaskWait (OS_EVENT *pevent)
{
    1dfc:	fd010113          	add	sp,sp,-48
    1e00:	02812623          	sw	s0,44(sp)
    1e04:	03010413          	add	s0,sp,48
    1e08:	fca42e23          	sw	a0,-36(s0)
    INT8U  y;


    OSTCBCur->OSTCBEventPtr               = pevent;                 /* Store ptr to ECB in TCB         */
    1e0c:	000287b7          	lui	a5,0x28
    1e10:	81c7a783          	lw	a5,-2020(a5) # 2781c <OSTCBCur>
    1e14:	fdc42703          	lw	a4,-36(s0)
    1e18:	00e7ae23          	sw	a4,28(a5)

    pevent->OSEventTbl[OSTCBCur->OSTCBY] |= OSTCBCur->OSTCBBitX;    /* Put task in waiting list        */
    1e1c:	000287b7          	lui	a5,0x28
    1e20:	81c7a783          	lw	a5,-2020(a5) # 2781c <OSTCBCur>
    1e24:	03c7c783          	lbu	a5,60(a5)
    1e28:	00078713          	mv	a4,a5
    1e2c:	fdc42783          	lw	a5,-36(s0)
    1e30:	00e787b3          	add	a5,a5,a4
    1e34:	00b7c703          	lbu	a4,11(a5)
    1e38:	000287b7          	lui	a5,0x28
    1e3c:	81c7a783          	lw	a5,-2020(a5) # 2781c <OSTCBCur>
    1e40:	03d7c783          	lbu	a5,61(a5)
    1e44:	000286b7          	lui	a3,0x28
    1e48:	81c6a683          	lw	a3,-2020(a3) # 2781c <OSTCBCur>
    1e4c:	03c6c683          	lbu	a3,60(a3)
    1e50:	00f767b3          	or	a5,a4,a5
    1e54:	0ff7f713          	zext.b	a4,a5
    1e58:	fdc42783          	lw	a5,-36(s0)
    1e5c:	00d787b3          	add	a5,a5,a3
    1e60:	00e785a3          	sb	a4,11(a5)
    pevent->OSEventGrp                   |= OSTCBCur->OSTCBBitY;
    1e64:	fdc42783          	lw	a5,-36(s0)
    1e68:	00a7c703          	lbu	a4,10(a5)
    1e6c:	000287b7          	lui	a5,0x28
    1e70:	81c7a783          	lw	a5,-2020(a5) # 2781c <OSTCBCur>
    1e74:	03e7c783          	lbu	a5,62(a5)
    1e78:	00f767b3          	or	a5,a4,a5
    1e7c:	0ff7f713          	zext.b	a4,a5
    1e80:	fdc42783          	lw	a5,-36(s0)
    1e84:	00e78523          	sb	a4,10(a5)

    y             =  OSTCBCur->OSTCBY;            /* Task no longer ready                              */
    1e88:	000287b7          	lui	a5,0x28
    1e8c:	81c7a783          	lw	a5,-2020(a5) # 2781c <OSTCBCur>
    1e90:	03c7c783          	lbu	a5,60(a5)
    1e94:	fef407a3          	sb	a5,-17(s0)
    OSRdyTbl[y]  &= (OS_PRIO)~OSTCBCur->OSTCBBitX;
    1e98:	fef44703          	lbu	a4,-17(s0)
    1e9c:	000287b7          	lui	a5,0x28
    1ea0:	81078793          	add	a5,a5,-2032 # 27810 <OSRdyTbl>
    1ea4:	00f707b3          	add	a5,a4,a5
    1ea8:	0007c703          	lbu	a4,0(a5)
    1eac:	000287b7          	lui	a5,0x28
    1eb0:	81c7a783          	lw	a5,-2020(a5) # 2781c <OSTCBCur>
    1eb4:	03d7c783          	lbu	a5,61(a5)
    1eb8:	fff7c793          	not	a5,a5
    1ebc:	0ff7f793          	zext.b	a5,a5
    1ec0:	fef44683          	lbu	a3,-17(s0)
    1ec4:	00f777b3          	and	a5,a4,a5
    1ec8:	0ff7f713          	zext.b	a4,a5
    1ecc:	000287b7          	lui	a5,0x28
    1ed0:	81078793          	add	a5,a5,-2032 # 27810 <OSRdyTbl>
    1ed4:	00f687b3          	add	a5,a3,a5
    1ed8:	00e78023          	sb	a4,0(a5)
    OS_TRACE_TASK_SUSPENDED(OSTCBCur);
    if (OSRdyTbl[y] == 0u) {                      /* Clear event grp bit if this was only task pending */
    1edc:	fef44703          	lbu	a4,-17(s0)
    1ee0:	000287b7          	lui	a5,0x28
    1ee4:	81078793          	add	a5,a5,-2032 # 27810 <OSRdyTbl>
    1ee8:	00f707b3          	add	a5,a4,a5
    1eec:	0007c783          	lbu	a5,0(a5)
    1ef0:	02079863          	bnez	a5,1f20 <OS_EventTaskWait+0x124>
        OSRdyGrp &= (OS_PRIO)~OSTCBCur->OSTCBBitY;
    1ef4:	000287b7          	lui	a5,0x28
    1ef8:	81c7a783          	lw	a5,-2020(a5) # 2781c <OSTCBCur>
    1efc:	03e7c783          	lbu	a5,62(a5)
    1f00:	fff7c793          	not	a5,a5
    1f04:	0ff7f713          	zext.b	a4,a5
    1f08:	000287b7          	lui	a5,0x28
    1f0c:	80d7c783          	lbu	a5,-2035(a5) # 2780d <OSRdyGrp>
    1f10:	00f777b3          	and	a5,a4,a5
    1f14:	0ff7f713          	zext.b	a4,a5
    1f18:	000287b7          	lui	a5,0x28
    1f1c:	80e786a3          	sb	a4,-2035(a5) # 2780d <OSRdyGrp>
    }
}
    1f20:	00000013          	nop
    1f24:	02c12403          	lw	s0,44(sp)
    1f28:	03010113          	add	sp,sp,48
    1f2c:	00008067          	ret

00001f30 <OS_EventTaskWaitMulti>:
* Note       : This function is INTERNAL to uC/OS-II and your application should not call it.
*********************************************************************************************************
*/
#if ((OS_EVENT_EN) && (OS_EVENT_MULTI_EN > 0u))
void  OS_EventTaskWaitMulti (OS_EVENT **pevents_wait)
{
    1f30:	fd010113          	add	sp,sp,-48
    1f34:	02812623          	sw	s0,44(sp)
    1f38:	03010413          	add	s0,sp,48
    1f3c:	fca42e23          	sw	a0,-36(s0)
    OS_EVENT **pevents;
    OS_EVENT  *pevent;
    INT8U      y;


    OSTCBCur->OSTCBEventMultiPtr = (OS_EVENT **)pevents_wait;       /* Store ptr to ECBs in TCB        */
    1f40:	000287b7          	lui	a5,0x28
    1f44:	81c7a783          	lw	a5,-2020(a5) # 2781c <OSTCBCur>
    1f48:	fdc42703          	lw	a4,-36(s0)
    1f4c:	02e7a023          	sw	a4,32(a5)
    OSTCBCur->OSTCBEventMultiRdy = (OS_EVENT  *)0;
    1f50:	000287b7          	lui	a5,0x28
    1f54:	81c7a783          	lw	a5,-2020(a5) # 2781c <OSTCBCur>
    1f58:	0207a223          	sw	zero,36(a5)

    pevents =  pevents_wait;
    1f5c:	fdc42783          	lw	a5,-36(s0)
    1f60:	fef42623          	sw	a5,-20(s0)
    pevent  = *pevents;
    1f64:	fec42783          	lw	a5,-20(s0)
    1f68:	0007a783          	lw	a5,0(a5)
    1f6c:	fef42423          	sw	a5,-24(s0)
    while (pevent != (OS_EVENT *)0) {                               /* Put task in waiting lists       */
    1f70:	0880006f          	j	1ff8 <OS_EventTaskWaitMulti+0xc8>
        pevent->OSEventTbl[OSTCBCur->OSTCBY] |= OSTCBCur->OSTCBBitX;
    1f74:	000287b7          	lui	a5,0x28
    1f78:	81c7a783          	lw	a5,-2020(a5) # 2781c <OSTCBCur>
    1f7c:	03c7c783          	lbu	a5,60(a5)
    1f80:	00078713          	mv	a4,a5
    1f84:	fe842783          	lw	a5,-24(s0)
    1f88:	00e787b3          	add	a5,a5,a4
    1f8c:	00b7c703          	lbu	a4,11(a5)
    1f90:	000287b7          	lui	a5,0x28
    1f94:	81c7a783          	lw	a5,-2020(a5) # 2781c <OSTCBCur>
    1f98:	03d7c783          	lbu	a5,61(a5)
    1f9c:	000286b7          	lui	a3,0x28
    1fa0:	81c6a683          	lw	a3,-2020(a3) # 2781c <OSTCBCur>
    1fa4:	03c6c683          	lbu	a3,60(a3)
    1fa8:	00f767b3          	or	a5,a4,a5
    1fac:	0ff7f713          	zext.b	a4,a5
    1fb0:	fe842783          	lw	a5,-24(s0)
    1fb4:	00d787b3          	add	a5,a5,a3
    1fb8:	00e785a3          	sb	a4,11(a5)
        pevent->OSEventGrp                   |= OSTCBCur->OSTCBBitY;
    1fbc:	fe842783          	lw	a5,-24(s0)
    1fc0:	00a7c703          	lbu	a4,10(a5)
    1fc4:	000287b7          	lui	a5,0x28
    1fc8:	81c7a783          	lw	a5,-2020(a5) # 2781c <OSTCBCur>
    1fcc:	03e7c783          	lbu	a5,62(a5)
    1fd0:	00f767b3          	or	a5,a4,a5
    1fd4:	0ff7f713          	zext.b	a4,a5
    1fd8:	fe842783          	lw	a5,-24(s0)
    1fdc:	00e78523          	sb	a4,10(a5)
        pevents++;
    1fe0:	fec42783          	lw	a5,-20(s0)
    1fe4:	00478793          	add	a5,a5,4
    1fe8:	fef42623          	sw	a5,-20(s0)
        pevent = *pevents;
    1fec:	fec42783          	lw	a5,-20(s0)
    1ff0:	0007a783          	lw	a5,0(a5)
    1ff4:	fef42423          	sw	a5,-24(s0)
    while (pevent != (OS_EVENT *)0) {                               /* Put task in waiting lists       */
    1ff8:	fe842783          	lw	a5,-24(s0)
    1ffc:	f6079ce3          	bnez	a5,1f74 <OS_EventTaskWaitMulti+0x44>
    }

    y             =  OSTCBCur->OSTCBY;            /* Task no longer ready                              */
    2000:	000287b7          	lui	a5,0x28
    2004:	81c7a783          	lw	a5,-2020(a5) # 2781c <OSTCBCur>
    2008:	03c7c783          	lbu	a5,60(a5)
    200c:	fef403a3          	sb	a5,-25(s0)
    OSRdyTbl[y]  &= (OS_PRIO)~OSTCBCur->OSTCBBitX;
    2010:	fe744703          	lbu	a4,-25(s0)
    2014:	000287b7          	lui	a5,0x28
    2018:	81078793          	add	a5,a5,-2032 # 27810 <OSRdyTbl>
    201c:	00f707b3          	add	a5,a4,a5
    2020:	0007c703          	lbu	a4,0(a5)
    2024:	000287b7          	lui	a5,0x28
    2028:	81c7a783          	lw	a5,-2020(a5) # 2781c <OSTCBCur>
    202c:	03d7c783          	lbu	a5,61(a5)
    2030:	fff7c793          	not	a5,a5
    2034:	0ff7f793          	zext.b	a5,a5
    2038:	fe744683          	lbu	a3,-25(s0)
    203c:	00f777b3          	and	a5,a4,a5
    2040:	0ff7f713          	zext.b	a4,a5
    2044:	000287b7          	lui	a5,0x28
    2048:	81078793          	add	a5,a5,-2032 # 27810 <OSRdyTbl>
    204c:	00f687b3          	add	a5,a3,a5
    2050:	00e78023          	sb	a4,0(a5)
    OS_TRACE_TASK_SUSPENDED(OSTCBCur);
    if (OSRdyTbl[y] == 0u) {                      /* Clear event grp bit if this was only task pending */
    2054:	fe744703          	lbu	a4,-25(s0)
    2058:	000287b7          	lui	a5,0x28
    205c:	81078793          	add	a5,a5,-2032 # 27810 <OSRdyTbl>
    2060:	00f707b3          	add	a5,a4,a5
    2064:	0007c783          	lbu	a5,0(a5)
    2068:	02079863          	bnez	a5,2098 <OS_EventTaskWaitMulti+0x168>
        OSRdyGrp &= (OS_PRIO)~OSTCBCur->OSTCBBitY;
    206c:	000287b7          	lui	a5,0x28
    2070:	81c7a783          	lw	a5,-2020(a5) # 2781c <OSTCBCur>
    2074:	03e7c783          	lbu	a5,62(a5)
    2078:	fff7c793          	not	a5,a5
    207c:	0ff7f713          	zext.b	a4,a5
    2080:	000287b7          	lui	a5,0x28
    2084:	80d7c783          	lbu	a5,-2035(a5) # 2780d <OSRdyGrp>
    2088:	00f777b3          	and	a5,a4,a5
    208c:	0ff7f713          	zext.b	a4,a5
    2090:	000287b7          	lui	a5,0x28
    2094:	80e786a3          	sb	a4,-2035(a5) # 2780d <OSRdyGrp>
    }
}
    2098:	00000013          	nop
    209c:	02c12403          	lw	s0,44(sp)
    20a0:	03010113          	add	sp,sp,48
    20a4:	00008067          	ret

000020a8 <OS_EventTaskRemove>:
*********************************************************************************************************
*/
#if (OS_EVENT_EN)
void  OS_EventTaskRemove (OS_TCB   *ptcb,
                          OS_EVENT *pevent)
{
    20a8:	fd010113          	add	sp,sp,-48
    20ac:	02812623          	sw	s0,44(sp)
    20b0:	03010413          	add	s0,sp,48
    20b4:	fca42e23          	sw	a0,-36(s0)
    20b8:	fcb42c23          	sw	a1,-40(s0)
    INT8U  y;


    y                       =  ptcb->OSTCBY;
    20bc:	fdc42783          	lw	a5,-36(s0)
    20c0:	03c7c783          	lbu	a5,60(a5)
    20c4:	fef407a3          	sb	a5,-17(s0)
    pevent->OSEventTbl[y]  &= (OS_PRIO)~ptcb->OSTCBBitX;    /* Remove task from wait list              */
    20c8:	fef44783          	lbu	a5,-17(s0)
    20cc:	fd842703          	lw	a4,-40(s0)
    20d0:	00f707b3          	add	a5,a4,a5
    20d4:	00b7c683          	lbu	a3,11(a5)
    20d8:	fdc42783          	lw	a5,-36(s0)
    20dc:	03d7c783          	lbu	a5,61(a5)
    20e0:	fff7c793          	not	a5,a5
    20e4:	0ff7f713          	zext.b	a4,a5
    20e8:	fef44783          	lbu	a5,-17(s0)
    20ec:	00e6f733          	and	a4,a3,a4
    20f0:	0ff77713          	zext.b	a4,a4
    20f4:	fd842683          	lw	a3,-40(s0)
    20f8:	00f687b3          	add	a5,a3,a5
    20fc:	00e785a3          	sb	a4,11(a5)
    if (pevent->OSEventTbl[y] == 0u) {
    2100:	fef44783          	lbu	a5,-17(s0)
    2104:	fd842703          	lw	a4,-40(s0)
    2108:	00f707b3          	add	a5,a4,a5
    210c:	00b7c783          	lbu	a5,11(a5)
    2110:	02079663          	bnez	a5,213c <OS_EventTaskRemove+0x94>
        pevent->OSEventGrp &= (OS_PRIO)~ptcb->OSTCBBitY;
    2114:	fd842783          	lw	a5,-40(s0)
    2118:	00a7c703          	lbu	a4,10(a5)
    211c:	fdc42783          	lw	a5,-36(s0)
    2120:	03e7c783          	lbu	a5,62(a5)
    2124:	fff7c793          	not	a5,a5
    2128:	0ff7f793          	zext.b	a5,a5
    212c:	00f777b3          	and	a5,a4,a5
    2130:	0ff7f713          	zext.b	a4,a5
    2134:	fd842783          	lw	a5,-40(s0)
    2138:	00e78523          	sb	a4,10(a5)
    }
    ptcb->OSTCBEventPtr     = (OS_EVENT  *)0;               /* Unlink OS_EVENT from OS_TCB             */
    213c:	fdc42783          	lw	a5,-36(s0)
    2140:	0007ae23          	sw	zero,28(a5)
}
    2144:	00000013          	nop
    2148:	02c12403          	lw	s0,44(sp)
    214c:	03010113          	add	sp,sp,48
    2150:	00008067          	ret

00002154 <OS_EventTaskRemoveMulti>:
*********************************************************************************************************
*/
#if ((OS_EVENT_EN) && (OS_EVENT_MULTI_EN > 0u))
void  OS_EventTaskRemoveMulti (OS_TCB    *ptcb,
                               OS_EVENT **pevents_multi)
{
    2154:	fd010113          	add	sp,sp,-48
    2158:	02812623          	sw	s0,44(sp)
    215c:	03010413          	add	s0,sp,48
    2160:	fca42e23          	sw	a0,-36(s0)
    2164:	fcb42c23          	sw	a1,-40(s0)
    INT8U      y;
    OS_PRIO    bity;
    OS_PRIO    bitx;


    y       =  ptcb->OSTCBY;
    2168:	fdc42783          	lw	a5,-36(s0)
    216c:	03c7c783          	lbu	a5,60(a5)
    2170:	fef403a3          	sb	a5,-25(s0)
    bity    =  ptcb->OSTCBBitY;
    2174:	fdc42783          	lw	a5,-36(s0)
    2178:	03e7c783          	lbu	a5,62(a5)
    217c:	fef40323          	sb	a5,-26(s0)
    bitx    =  ptcb->OSTCBBitX;
    2180:	fdc42783          	lw	a5,-36(s0)
    2184:	03d7c783          	lbu	a5,61(a5)
    2188:	fef402a3          	sb	a5,-27(s0)
    pevents =  pevents_multi;
    218c:	fd842783          	lw	a5,-40(s0)
    2190:	fef42623          	sw	a5,-20(s0)
    pevent  = *pevents;
    2194:	fec42783          	lw	a5,-20(s0)
    2198:	0007a783          	lw	a5,0(a5)
    219c:	fef42423          	sw	a5,-24(s0)
    while (pevent != (OS_EVENT *)0) {                   /* Remove task from all events' wait lists     */
    21a0:	0880006f          	j	2228 <OS_EventTaskRemoveMulti+0xd4>
        pevent->OSEventTbl[y]  &= (OS_PRIO)~bitx;
    21a4:	fe744783          	lbu	a5,-25(s0)
    21a8:	fe842703          	lw	a4,-24(s0)
    21ac:	00f707b3          	add	a5,a4,a5
    21b0:	00b7c683          	lbu	a3,11(a5)
    21b4:	fe544783          	lbu	a5,-27(s0)
    21b8:	fff7c793          	not	a5,a5
    21bc:	0ff7f713          	zext.b	a4,a5
    21c0:	fe744783          	lbu	a5,-25(s0)
    21c4:	00e6f733          	and	a4,a3,a4
    21c8:	0ff77713          	zext.b	a4,a4
    21cc:	fe842683          	lw	a3,-24(s0)
    21d0:	00f687b3          	add	a5,a3,a5
    21d4:	00e785a3          	sb	a4,11(a5)
        if (pevent->OSEventTbl[y] == 0u) {
    21d8:	fe744783          	lbu	a5,-25(s0)
    21dc:	fe842703          	lw	a4,-24(s0)
    21e0:	00f707b3          	add	a5,a4,a5
    21e4:	00b7c783          	lbu	a5,11(a5)
    21e8:	02079463          	bnez	a5,2210 <OS_EventTaskRemoveMulti+0xbc>
            pevent->OSEventGrp &= (OS_PRIO)~bity;
    21ec:	fe842783          	lw	a5,-24(s0)
    21f0:	00a7c703          	lbu	a4,10(a5)
    21f4:	fe644783          	lbu	a5,-26(s0)
    21f8:	fff7c793          	not	a5,a5
    21fc:	0ff7f793          	zext.b	a5,a5
    2200:	00f777b3          	and	a5,a4,a5
    2204:	0ff7f713          	zext.b	a4,a5
    2208:	fe842783          	lw	a5,-24(s0)
    220c:	00e78523          	sb	a4,10(a5)
        }
        pevents++;
    2210:	fec42783          	lw	a5,-20(s0)
    2214:	00478793          	add	a5,a5,4
    2218:	fef42623          	sw	a5,-20(s0)
        pevent = *pevents;
    221c:	fec42783          	lw	a5,-20(s0)
    2220:	0007a783          	lw	a5,0(a5)
    2224:	fef42423          	sw	a5,-24(s0)
    while (pevent != (OS_EVENT *)0) {                   /* Remove task from all events' wait lists     */
    2228:	fe842783          	lw	a5,-24(s0)
    222c:	f6079ce3          	bnez	a5,21a4 <OS_EventTaskRemoveMulti+0x50>
    }
}
    2230:	00000013          	nop
    2234:	00000013          	nop
    2238:	02c12403          	lw	s0,44(sp)
    223c:	03010113          	add	sp,sp,48
    2240:	00008067          	ret

00002244 <OS_EventWaitListInit>:
* Note       : This function is INTERNAL to uC/OS-II and your application should not call it.
*********************************************************************************************************
*/
#if (OS_EVENT_EN)
void  OS_EventWaitListInit (OS_EVENT *pevent)
{
    2244:	fd010113          	add	sp,sp,-48
    2248:	02812623          	sw	s0,44(sp)
    224c:	03010413          	add	s0,sp,48
    2250:	fca42e23          	sw	a0,-36(s0)
    INT8U  i;


    pevent->OSEventGrp = 0u;                     /* No task waiting on event                           */
    2254:	fdc42783          	lw	a5,-36(s0)
    2258:	00078523          	sb	zero,10(a5)
    for (i = 0u; i < OS_EVENT_TBL_SIZE; i++) {
    225c:	fe0407a3          	sb	zero,-17(s0)
    2260:	0200006f          	j	2280 <OS_EventWaitListInit+0x3c>
        pevent->OSEventTbl[i] = 0u;
    2264:	fef44783          	lbu	a5,-17(s0)
    2268:	fdc42703          	lw	a4,-36(s0)
    226c:	00f707b3          	add	a5,a4,a5
    2270:	000785a3          	sb	zero,11(a5)
    for (i = 0u; i < OS_EVENT_TBL_SIZE; i++) {
    2274:	fef44783          	lbu	a5,-17(s0)
    2278:	00178793          	add	a5,a5,1
    227c:	fef407a3          	sb	a5,-17(s0)
    2280:	fef44703          	lbu	a4,-17(s0)
    2284:	00200793          	li	a5,2
    2288:	fce7fee3          	bgeu	a5,a4,2264 <OS_EventWaitListInit+0x20>
    }
}
    228c:	00000013          	nop
    2290:	00000013          	nop
    2294:	02c12403          	lw	s0,44(sp)
    2298:	03010113          	add	sp,sp,48
    229c:	00008067          	ret

000022a0 <OS_InitEventList>:
* Returns    : none
*********************************************************************************************************
*/

static  void  OS_InitEventList (void)
{
    22a0:	fe010113          	add	sp,sp,-32
    22a4:	00112e23          	sw	ra,28(sp)
    22a8:	00812c23          	sw	s0,24(sp)
    22ac:	02010413          	add	s0,sp,32
    INT16U     ix_next;
    OS_EVENT  *pevent1;
    OS_EVENT  *pevent2;


    OS_MemClr((INT8U *)&OSEventTbl[0], sizeof(OSEventTbl)); /* Clear the event table                   */
    22b0:	4b000593          	li	a1,1200
    22b4:	0002c7b7          	lui	a5,0x2c
    22b8:	9c878513          	add	a0,a5,-1592 # 2b9c8 <OSEventTbl>
    22bc:	424000ef          	jal	26e0 <OS_MemClr>
    for (ix = 0u; ix < (OS_MAX_EVENTS - 1u); ix++) {        /* Init. list of free EVENT control blocks */
    22c0:	fe041723          	sh	zero,-18(s0)
    22c4:	0880006f          	j	234c <OS_InitEventList+0xac>
        ix_next = ix + 1u;
    22c8:	fee45783          	lhu	a5,-18(s0)
    22cc:	00178793          	add	a5,a5,1
    22d0:	fef41323          	sh	a5,-26(s0)
        pevent1 = &OSEventTbl[ix];
    22d4:	fee45703          	lhu	a4,-18(s0)
    22d8:	00070793          	mv	a5,a4
    22dc:	00279793          	sll	a5,a5,0x2
    22e0:	00e787b3          	add	a5,a5,a4
    22e4:	00279793          	sll	a5,a5,0x2
    22e8:	0002c737          	lui	a4,0x2c
    22ec:	9c870713          	add	a4,a4,-1592 # 2b9c8 <OSEventTbl>
    22f0:	00e787b3          	add	a5,a5,a4
    22f4:	fef42423          	sw	a5,-24(s0)
        pevent2 = &OSEventTbl[ix_next];
    22f8:	fe645703          	lhu	a4,-26(s0)
    22fc:	00070793          	mv	a5,a4
    2300:	00279793          	sll	a5,a5,0x2
    2304:	00e787b3          	add	a5,a5,a4
    2308:	00279793          	sll	a5,a5,0x2
    230c:	0002c737          	lui	a4,0x2c
    2310:	9c870713          	add	a4,a4,-1592 # 2b9c8 <OSEventTbl>
    2314:	00e787b3          	add	a5,a5,a4
    2318:	fef42023          	sw	a5,-32(s0)
        pevent1->OSEventType    = OS_EVENT_TYPE_UNUSED;
    231c:	fe842783          	lw	a5,-24(s0)
    2320:	00078023          	sb	zero,0(a5)
        pevent1->OSEventPtr     = pevent2;
    2324:	fe842783          	lw	a5,-24(s0)
    2328:	fe042703          	lw	a4,-32(s0)
    232c:	00e7a223          	sw	a4,4(a5)
#if OS_EVENT_NAME_EN > 0u
        pevent1->OSEventName    = (INT8U *)(void *)"?";     /* Unknown name                            */
    2330:	fe842783          	lw	a5,-24(s0)
    2334:	00023737          	lui	a4,0x23
    2338:	06470713          	add	a4,a4,100 # 23064 <OSUnMapTbl+0x100>
    233c:	00e7a823          	sw	a4,16(a5)
    for (ix = 0u; ix < (OS_MAX_EVENTS - 1u); ix++) {        /* Init. list of free EVENT control blocks */
    2340:	fee45783          	lhu	a5,-18(s0)
    2344:	00178793          	add	a5,a5,1
    2348:	fef41723          	sh	a5,-18(s0)
    234c:	fee45703          	lhu	a4,-18(s0)
    2350:	03a00793          	li	a5,58
    2354:	f6e7fae3          	bgeu	a5,a4,22c8 <OS_InitEventList+0x28>
#endif
    }
    pevent1                         = &OSEventTbl[ix];
    2358:	fee45703          	lhu	a4,-18(s0)
    235c:	00070793          	mv	a5,a4
    2360:	00279793          	sll	a5,a5,0x2
    2364:	00e787b3          	add	a5,a5,a4
    2368:	00279793          	sll	a5,a5,0x2
    236c:	0002c737          	lui	a4,0x2c
    2370:	9c870713          	add	a4,a4,-1592 # 2b9c8 <OSEventTbl>
    2374:	00e787b3          	add	a5,a5,a4
    2378:	fef42423          	sw	a5,-24(s0)
    pevent1->OSEventType            = OS_EVENT_TYPE_UNUSED;
    237c:	fe842783          	lw	a5,-24(s0)
    2380:	00078023          	sb	zero,0(a5)
    pevent1->OSEventPtr             = (OS_EVENT *)0;
    2384:	fe842783          	lw	a5,-24(s0)
    2388:	0007a223          	sw	zero,4(a5)
#if OS_EVENT_NAME_EN > 0u
    pevent1->OSEventName            = (INT8U *)(void *)"?"; /* Unknown name                            */
    238c:	fe842783          	lw	a5,-24(s0)
    2390:	00023737          	lui	a4,0x23
    2394:	06470713          	add	a4,a4,100 # 23064 <OSUnMapTbl+0x100>
    2398:	00e7a823          	sw	a4,16(a5)
#endif
    OSEventFreeList                 = &OSEventTbl[0];
    239c:	000277b7          	lui	a5,0x27
    23a0:	0002c737          	lui	a4,0x2c
    23a4:	9c870713          	add	a4,a4,-1592 # 2b9c8 <OSEventTbl>
    23a8:	7ee7aa23          	sw	a4,2036(a5) # 277f4 <OSEventFreeList>
#if OS_EVENT_NAME_EN > 0u
    OSEventFreeList->OSEventName    = (INT8U *)"?";         /* Unknown name                            */
#endif
#endif
#endif
}
    23ac:	00000013          	nop
    23b0:	01c12083          	lw	ra,28(sp)
    23b4:	01812403          	lw	s0,24(sp)
    23b8:	02010113          	add	sp,sp,32
    23bc:	00008067          	ret

000023c0 <OS_InitMisc>:
* Returns    : none
*********************************************************************************************************
*/

static  void  OS_InitMisc (void)
{
    23c0:	ff010113          	add	sp,sp,-16
    23c4:	00812623          	sw	s0,12(sp)
    23c8:	01010413          	add	s0,sp,16
#if OS_TIME_GET_SET_EN > 0u
    OSTime                    = 0uL;                       /* Clear the 32-bit system clock            */
    23cc:	000287b7          	lui	a5,0x28
    23d0:	8207ae23          	sw	zero,-1988(a5) # 2783c <OSTime>
#endif

    OSIntNesting              = 0u;                        /* Clear the interrupt nesting counter      */
    23d4:	000287b7          	lui	a5,0x28
    23d8:	800784a3          	sb	zero,-2039(a5) # 27809 <OSIntNesting>
    OSLockNesting             = 0u;                        /* Clear the scheduling lock counter        */
    23dc:	000287b7          	lui	a5,0x28
    23e0:	80078523          	sb	zero,-2038(a5) # 2780a <OSLockNesting>

    OSTaskCtr                 = 0u;                        /* Clear the number of tasks                */
    23e4:	000287b7          	lui	a5,0x28
    23e8:	80078a23          	sb	zero,-2028(a5) # 27814 <OSTaskCtr>

    OSRunning                 = OS_FALSE;                  /* Indicate that multitasking not started   */
    23ec:	000287b7          	lui	a5,0x28
    23f0:	800789a3          	sb	zero,-2029(a5) # 27813 <OSRunning>

    OSCtxSwCtr                = 0u;                        /* Clear the context switch counter         */
    23f4:	000277b7          	lui	a5,0x27
    23f8:	7e07a823          	sw	zero,2032(a5) # 277f0 <OSCtxSwCtr>
    OSIdleCtr                 = 0uL;                       /* Clear the 32-bit idle counter            */
    23fc:	000287b7          	lui	a5,0x28
    2400:	8007ac23          	sw	zero,-2024(a5) # 27818 <OSIdleCtr>

#if OS_TASK_STAT_EN > 0u
    OSIdleCtrRun              = 0uL;
    2404:	000287b7          	lui	a5,0x28
    2408:	8007a223          	sw	zero,-2044(a5) # 27804 <OSIdleCtrRun>
    OSIdleCtrMax              = 0uL;
    240c:	000287b7          	lui	a5,0x28
    2410:	8007a023          	sw	zero,-2048(a5) # 27800 <OSIdleCtrMax>
    OSStatRdy                 = OS_FALSE;                  /* Statistic task is not ready              */
    2414:	000287b7          	lui	a5,0x28
    2418:	80078423          	sb	zero,-2040(a5) # 27808 <OSStatRdy>
#ifdef OS_SAFETY_CRITICAL_IEC61508
    OSSafetyCriticalStartFlag = OS_FALSE;                  /* Still allow creation of objects          */
#endif

#if OS_TASK_REG_TBL_SIZE > 0u
    OSTaskRegNextAvailID      = 0u;                        /* Initialize the task register ID          */
    241c:	000287b7          	lui	a5,0x28
    2420:	82078c23          	sb	zero,-1992(a5) # 27838 <OSTaskRegNextAvailID>
#endif
}
    2424:	00000013          	nop
    2428:	00c12403          	lw	s0,12(sp)
    242c:	01010113          	add	sp,sp,16
    2430:	00008067          	ret

00002434 <OS_InitRdyList>:
* Returns    : none
*********************************************************************************************************
*/

static  void  OS_InitRdyList (void)
{
    2434:	fe010113          	add	sp,sp,-32
    2438:	00812e23          	sw	s0,28(sp)
    243c:	02010413          	add	s0,sp,32
    INT8U  i;


    OSRdyGrp      = 0u;                                    /* Clear the ready list                     */
    2440:	000287b7          	lui	a5,0x28
    2444:	800786a3          	sb	zero,-2035(a5) # 2780d <OSRdyGrp>
    for (i = 0u; i < OS_RDY_TBL_SIZE; i++) {
    2448:	fe0407a3          	sb	zero,-17(s0)
    244c:	0240006f          	j	2470 <OS_InitRdyList+0x3c>
        OSRdyTbl[i] = 0u;
    2450:	fef44703          	lbu	a4,-17(s0)
    2454:	000287b7          	lui	a5,0x28
    2458:	81078793          	add	a5,a5,-2032 # 27810 <OSRdyTbl>
    245c:	00f707b3          	add	a5,a4,a5
    2460:	00078023          	sb	zero,0(a5)
    for (i = 0u; i < OS_RDY_TBL_SIZE; i++) {
    2464:	fef44783          	lbu	a5,-17(s0)
    2468:	00178793          	add	a5,a5,1
    246c:	fef407a3          	sb	a5,-17(s0)
    2470:	fef44703          	lbu	a4,-17(s0)
    2474:	00200793          	li	a5,2
    2478:	fce7fce3          	bgeu	a5,a4,2450 <OS_InitRdyList+0x1c>
    }

    OSPrioCur     = 0u;
    247c:	000287b7          	lui	a5,0x28
    2480:	800785a3          	sb	zero,-2037(a5) # 2780b <OSPrioCur>
    OSPrioHighRdy = 0u;
    2484:	000287b7          	lui	a5,0x28
    2488:	80078623          	sb	zero,-2036(a5) # 2780c <OSPrioHighRdy>

    OSTCBHighRdy  = (OS_TCB *)0;
    248c:	000287b7          	lui	a5,0x28
    2490:	8207a223          	sw	zero,-2012(a5) # 27824 <OSTCBHighRdy>
    OSTCBCur      = (OS_TCB *)0;
    2494:	000287b7          	lui	a5,0x28
    2498:	8007ae23          	sw	zero,-2020(a5) # 2781c <OSTCBCur>
}
    249c:	00000013          	nop
    24a0:	01c12403          	lw	s0,28(sp)
    24a4:	02010113          	add	sp,sp,32
    24a8:	00008067          	ret

000024ac <OS_InitTaskIdle>:
* Returns    : none
*********************************************************************************************************
*/

static  void  OS_InitTaskIdle (void)
{
    24ac:	fd010113          	add	sp,sp,-48
    24b0:	02112623          	sw	ra,44(sp)
    24b4:	02812423          	sw	s0,40(sp)
    24b8:	03010413          	add	s0,sp,48
#endif


#if OS_TASK_CREATE_EXT_EN > 0u
    #if OS_STK_GROWTH == 1u
    (void)OSTaskCreateExt(OS_TaskIdle,
    24bc:	00300793          	li	a5,3
    24c0:	00f12023          	sw	a5,0(sp)
    24c4:	00000893          	li	a7,0
    24c8:	20000813          	li	a6,512
    24cc:	0002c7b7          	lui	a5,0x2c
    24d0:	7b878793          	add	a5,a5,1976 # 2c7b8 <OSTaskIdleStk>
    24d4:	00010737          	lui	a4,0x10
    24d8:	fff70713          	add	a4,a4,-1 # ffff <__sfvwrite_r+0x9b>
    24dc:	01400693          	li	a3,20
    24e0:	0002d637          	lui	a2,0x2d
    24e4:	fb460613          	add	a2,a2,-76 # 2cfb4 <OSTaskIdleStk+0x7fc>
    24e8:	00000593          	li	a1,0
    24ec:	00003537          	lui	a0,0x3
    24f0:	95450513          	add	a0,a0,-1708 # 2954 <OS_TaskIdle>
    24f4:	02c060ef          	jal	8520 <OSTaskCreateExt>
                       OS_TASK_IDLE_PRIO);
    #endif
#endif

#if OS_TASK_NAME_EN > 0u
    OSTaskNameSet(OS_TASK_IDLE_PRIO, (INT8U *)(void *)"uC/OS-II Idle", &err);
    24f8:	fef40793          	add	a5,s0,-17
    24fc:	00078613          	mv	a2,a5
    2500:	000237b7          	lui	a5,0x23
    2504:	06878593          	add	a1,a5,104 # 23068 <OSUnMapTbl+0x104>
    2508:	01400513          	li	a0,20
    250c:	06d060ef          	jal	8d78 <OSTaskNameSet>
#endif
}
    2510:	00000013          	nop
    2514:	02c12083          	lw	ra,44(sp)
    2518:	02812403          	lw	s0,40(sp)
    251c:	03010113          	add	sp,sp,48
    2520:	00008067          	ret

00002524 <OS_InitTaskStat>:
*********************************************************************************************************
*/

#if OS_TASK_STAT_EN > 0u
static  void  OS_InitTaskStat (void)
{
    2524:	fd010113          	add	sp,sp,-48
    2528:	02112623          	sw	ra,44(sp)
    252c:	02812423          	sw	s0,40(sp)
    2530:	03010413          	add	s0,sp,48
#endif


#if OS_TASK_CREATE_EXT_EN > 0u
    #if OS_STK_GROWTH == 1u
    (void)OSTaskCreateExt(OS_TaskStat,
    2534:	00300793          	li	a5,3
    2538:	00f12023          	sw	a5,0(sp)
    253c:	00000893          	li	a7,0
    2540:	20000813          	li	a6,512
    2544:	0002c7b7          	lui	a5,0x2c
    2548:	fb878793          	add	a5,a5,-72 # 2bfb8 <OSTaskStatStk>
    254c:	00010737          	lui	a4,0x10
    2550:	ffe70713          	add	a4,a4,-2 # fffe <__sfvwrite_r+0x9a>
    2554:	01300693          	li	a3,19
    2558:	0002c637          	lui	a2,0x2c
    255c:	7b460613          	add	a2,a2,1972 # 2c7b4 <OSTaskStatStk+0x7fc>
    2560:	00000593          	li	a1,0
    2564:	00003537          	lui	a0,0x3
    2568:	9b850513          	add	a0,a0,-1608 # 29b8 <OS_TaskStat>
    256c:	7b5050ef          	jal	8520 <OSTaskCreateExt>
                       OS_TASK_STAT_PRIO);                             /* One higher than the idle task  */
    #endif
#endif

#if OS_TASK_NAME_EN > 0u
    OSTaskNameSet(OS_TASK_STAT_PRIO, (INT8U *)(void *)"uC/OS-II Stat", &err);
    2570:	fef40793          	add	a5,s0,-17
    2574:	00078613          	mv	a2,a5
    2578:	000237b7          	lui	a5,0x23
    257c:	07878593          	add	a1,a5,120 # 23078 <OSUnMapTbl+0x114>
    2580:	01300513          	li	a0,19
    2584:	7f4060ef          	jal	8d78 <OSTaskNameSet>
#endif
}
    2588:	00000013          	nop
    258c:	02c12083          	lw	ra,44(sp)
    2590:	02812403          	lw	s0,40(sp)
    2594:	03010113          	add	sp,sp,48
    2598:	00008067          	ret

0000259c <OS_InitTCBList>:
* Returns    : none
*********************************************************************************************************
*/

static  void  OS_InitTCBList (void)
{
    259c:	fe010113          	add	sp,sp,-32
    25a0:	00112e23          	sw	ra,28(sp)
    25a4:	00812c23          	sw	s0,24(sp)
    25a8:	02010413          	add	s0,sp,32
    INT8U    ix_next;
    OS_TCB  *ptcb1;
    OS_TCB  *ptcb2;


    OS_MemClr((INT8U *)&OSTCBTbl[0],     sizeof(OSTCBTbl));      /* Clear all the TCBs                 */
    25ac:	000017b7          	lui	a5,0x1
    25b0:	a2078593          	add	a1,a5,-1504 # a20 <__env_lock+0x60>
    25b4:	0002d7b7          	lui	a5,0x2d
    25b8:	00c78513          	add	a0,a5,12 # 2d00c <OSTCBTbl>
    25bc:	124000ef          	jal	26e0 <OS_MemClr>
    OS_MemClr((INT8U *)&OSTCBPrioTbl[0], sizeof(OSTCBPrioTbl));  /* Clear the priority table           */
    25c0:	05400593          	li	a1,84
    25c4:	0002d7b7          	lui	a5,0x2d
    25c8:	fb878513          	add	a0,a5,-72 # 2cfb8 <OSTCBPrioTbl>
    25cc:	114000ef          	jal	26e0 <OS_MemClr>
    for (ix = 0u; ix < (OS_MAX_TASKS + OS_N_SYS_TASKS - 1u); ix++) {    /* Init. list of free TCBs     */
    25d0:	fe0407a3          	sb	zero,-17(s0)
    25d4:	0900006f          	j	2664 <OS_InitTCBList+0xc8>
        ix_next =  ix + 1u;
    25d8:	fef44783          	lbu	a5,-17(s0)
    25dc:	00178793          	add	a5,a5,1
    25e0:	fef403a3          	sb	a5,-25(s0)
        ptcb1   = &OSTCBTbl[ix];
    25e4:	fef44703          	lbu	a4,-17(s0)
    25e8:	00070793          	mv	a5,a4
    25ec:	00379793          	sll	a5,a5,0x3
    25f0:	40e787b3          	sub	a5,a5,a4
    25f4:	00279793          	sll	a5,a5,0x2
    25f8:	40e787b3          	sub	a5,a5,a4
    25fc:	00379793          	sll	a5,a5,0x3
    2600:	0002d737          	lui	a4,0x2d
    2604:	00c70713          	add	a4,a4,12 # 2d00c <OSTCBTbl>
    2608:	00e787b3          	add	a5,a5,a4
    260c:	fef42423          	sw	a5,-24(s0)
        ptcb2   = &OSTCBTbl[ix_next];
    2610:	fe744703          	lbu	a4,-25(s0)
    2614:	00070793          	mv	a5,a4
    2618:	00379793          	sll	a5,a5,0x3
    261c:	40e787b3          	sub	a5,a5,a4
    2620:	00279793          	sll	a5,a5,0x2
    2624:	40e787b3          	sub	a5,a5,a4
    2628:	00379793          	sll	a5,a5,0x3
    262c:	0002d737          	lui	a4,0x2d
    2630:	00c70713          	add	a4,a4,12 # 2d00c <OSTCBTbl>
    2634:	00e787b3          	add	a5,a5,a4
    2638:	fef42023          	sw	a5,-32(s0)
        ptcb1->OSTCBNext = ptcb2;
    263c:	fe842783          	lw	a5,-24(s0)
    2640:	fe042703          	lw	a4,-32(s0)
    2644:	00e7aa23          	sw	a4,20(a5)
#if OS_TASK_NAME_EN > 0u
        ptcb1->OSTCBTaskName = (INT8U *)(void *)"?";             /* Unknown name                       */
    2648:	fe842783          	lw	a5,-24(s0)
    264c:	00023737          	lui	a4,0x23
    2650:	06470713          	add	a4,a4,100 # 23064 <OSUnMapTbl+0x100>
    2654:	04e7aa23          	sw	a4,84(a5)
    for (ix = 0u; ix < (OS_MAX_TASKS + OS_N_SYS_TASKS - 1u); ix++) {    /* Init. list of free TCBs     */
    2658:	fef44783          	lbu	a5,-17(s0)
    265c:	00178793          	add	a5,a5,1
    2660:	fef407a3          	sb	a5,-17(s0)
    2664:	fef44703          	lbu	a4,-17(s0)
    2668:	00a00793          	li	a5,10
    266c:	f6e7f6e3          	bgeu	a5,a4,25d8 <OS_InitTCBList+0x3c>
#endif
    }
    ptcb1                   = &OSTCBTbl[ix];
    2670:	fef44703          	lbu	a4,-17(s0)
    2674:	00070793          	mv	a5,a4
    2678:	00379793          	sll	a5,a5,0x3
    267c:	40e787b3          	sub	a5,a5,a4
    2680:	00279793          	sll	a5,a5,0x2
    2684:	40e787b3          	sub	a5,a5,a4
    2688:	00379793          	sll	a5,a5,0x3
    268c:	0002d737          	lui	a4,0x2d
    2690:	00c70713          	add	a4,a4,12 # 2d00c <OSTCBTbl>
    2694:	00e787b3          	add	a5,a5,a4
    2698:	fef42423          	sw	a5,-24(s0)
    ptcb1->OSTCBNext        = (OS_TCB *)0;                       /* Last OS_TCB                        */
    269c:	fe842783          	lw	a5,-24(s0)
    26a0:	0007aa23          	sw	zero,20(a5)
#if OS_TASK_NAME_EN > 0u
    ptcb1->OSTCBTaskName    = (INT8U *)(void *)"?";              /* Unknown name                       */
    26a4:	fe842783          	lw	a5,-24(s0)
    26a8:	00023737          	lui	a4,0x23
    26ac:	06470713          	add	a4,a4,100 # 23064 <OSUnMapTbl+0x100>
    26b0:	04e7aa23          	sw	a4,84(a5)
#endif
    OSTCBList               = (OS_TCB *)0;                       /* TCB lists initializations          */
    26b4:	000287b7          	lui	a5,0x28
    26b8:	8207a423          	sw	zero,-2008(a5) # 27828 <OSTCBList>
    OSTCBFreeList           = &OSTCBTbl[0];
    26bc:	000287b7          	lui	a5,0x28
    26c0:	0002d737          	lui	a4,0x2d
    26c4:	00c70713          	add	a4,a4,12 # 2d00c <OSTCBTbl>
    26c8:	82e7a023          	sw	a4,-2016(a5) # 27820 <OSTCBFreeList>
}
    26cc:	00000013          	nop
    26d0:	01c12083          	lw	ra,28(sp)
    26d4:	01812403          	lw	s0,24(sp)
    26d8:	02010113          	add	sp,sp,32
    26dc:	00008067          	ret

000026e0 <OS_MemClr>:
*********************************************************************************************************
*/

void  OS_MemClr (INT8U  *pdest,
                 INT16U  size)
{
    26e0:	fe010113          	add	sp,sp,-32
    26e4:	00812e23          	sw	s0,28(sp)
    26e8:	02010413          	add	s0,sp,32
    26ec:	fea42623          	sw	a0,-20(s0)
    26f0:	00058793          	mv	a5,a1
    26f4:	fef41523          	sh	a5,-22(s0)
    while (size > 0u) {
    26f8:	0200006f          	j	2718 <OS_MemClr+0x38>
        *pdest++ = (INT8U)0;
    26fc:	fec42783          	lw	a5,-20(s0)
    2700:	00178713          	add	a4,a5,1
    2704:	fee42623          	sw	a4,-20(s0)
    2708:	00078023          	sb	zero,0(a5)
        size--;
    270c:	fea45783          	lhu	a5,-22(s0)
    2710:	fff78793          	add	a5,a5,-1
    2714:	fef41523          	sh	a5,-22(s0)
    while (size > 0u) {
    2718:	fea45783          	lhu	a5,-22(s0)
    271c:	fe0790e3          	bnez	a5,26fc <OS_MemClr+0x1c>
    }
}
    2720:	00000013          	nop
    2724:	00000013          	nop
    2728:	01c12403          	lw	s0,28(sp)
    272c:	02010113          	add	sp,sp,32
    2730:	00008067          	ret

00002734 <OS_MemCopy>:
*/

void  OS_MemCopy (INT8U  *pdest,
                  INT8U  *psrc,
                  INT16U  size)
{
    2734:	fe010113          	add	sp,sp,-32
    2738:	00812e23          	sw	s0,28(sp)
    273c:	02010413          	add	s0,sp,32
    2740:	fea42623          	sw	a0,-20(s0)
    2744:	feb42423          	sw	a1,-24(s0)
    2748:	00060793          	mv	a5,a2
    274c:	fef41323          	sh	a5,-26(s0)
    while (size > 0u) {
    2750:	0300006f          	j	2780 <OS_MemCopy+0x4c>
        *pdest++ = *psrc++;
    2754:	fe842703          	lw	a4,-24(s0)
    2758:	00170793          	add	a5,a4,1
    275c:	fef42423          	sw	a5,-24(s0)
    2760:	fec42783          	lw	a5,-20(s0)
    2764:	00178693          	add	a3,a5,1
    2768:	fed42623          	sw	a3,-20(s0)
    276c:	00074703          	lbu	a4,0(a4)
    2770:	00e78023          	sb	a4,0(a5)
        size--;
    2774:	fe645783          	lhu	a5,-26(s0)
    2778:	fff78793          	add	a5,a5,-1
    277c:	fef41323          	sh	a5,-26(s0)
    while (size > 0u) {
    2780:	fe645783          	lhu	a5,-26(s0)
    2784:	fc0798e3          	bnez	a5,2754 <OS_MemCopy+0x20>
    }
}
    2788:	00000013          	nop
    278c:	00000013          	nop
    2790:	01c12403          	lw	s0,28(sp)
    2794:	02010113          	add	sp,sp,32
    2798:	00008067          	ret

0000279c <OS_Sched>:
*              2) Rescheduling is prevented when the scheduler is locked (see OS_SchedLock())
*********************************************************************************************************
*/

void  OS_Sched (void)
{
    279c:	fe010113          	add	sp,sp,-32
    27a0:	00112e23          	sw	ra,28(sp)
    27a4:	00812c23          	sw	s0,24(sp)
    27a8:	02010413          	add	s0,sp,32
#if OS_CRITICAL_METHOD == 3u                           /* Allocate storage for CPU status register     */
    OS_CPU_SR  cpu_sr = 0u;
    27ac:	fe042623          	sw	zero,-20(s0)
    ABBOTTS_LAKE_READ_AND_CLR_CSR(ABBOTTS_LAKE_MSTATUS_CSR, context, ABBOTTS_LAKE_MSTATUS_MIE_MASK);
    27b0:	00800793          	li	a5,8
    27b4:	3007b7f3          	csrrc	a5,mstatus,a5
    27b8:	fef42423          	sw	a5,-24(s0)
    return context;
    27bc:	fe842783          	lw	a5,-24(s0)
#endif



    OS_ENTER_CRITICAL();
    27c0:	fef42623          	sw	a5,-20(s0)
    if (OSIntNesting == 0u) {                          /* Schedule only if all ISRs done and ...       */
    27c4:	000287b7          	lui	a5,0x28
    27c8:	8097c783          	lbu	a5,-2039(a5) # 27809 <OSIntNesting>
    27cc:	06079e63          	bnez	a5,2848 <OS_Sched+0xac>
        if (OSLockNesting == 0u) {                     /* ... scheduler is not locked                  */
    27d0:	000287b7          	lui	a5,0x28
    27d4:	80a7c783          	lbu	a5,-2038(a5) # 2780a <OSLockNesting>
    27d8:	06079863          	bnez	a5,2848 <OS_Sched+0xac>
            OS_SchedNew();
    27dc:	098000ef          	jal	2874 <OS_SchedNew>
            OSTCBHighRdy = OSTCBPrioTbl[OSPrioHighRdy];
    27e0:	000287b7          	lui	a5,0x28
    27e4:	80c7c783          	lbu	a5,-2036(a5) # 2780c <OSPrioHighRdy>
    27e8:	00078693          	mv	a3,a5
    27ec:	0002d7b7          	lui	a5,0x2d
    27f0:	fb878713          	add	a4,a5,-72 # 2cfb8 <OSTCBPrioTbl>
    27f4:	00269793          	sll	a5,a3,0x2
    27f8:	00f707b3          	add	a5,a4,a5
    27fc:	0007a703          	lw	a4,0(a5)
    2800:	000287b7          	lui	a5,0x28
    2804:	82e7a223          	sw	a4,-2012(a5) # 27824 <OSTCBHighRdy>
            if (OSPrioHighRdy != OSPrioCur) {          /* No Ctx Sw if current task is highest rdy     */
    2808:	000287b7          	lui	a5,0x28
    280c:	80c7c703          	lbu	a4,-2036(a5) # 2780c <OSPrioHighRdy>
    2810:	000287b7          	lui	a5,0x28
    2814:	80b7c783          	lbu	a5,-2037(a5) # 2780b <OSPrioCur>
    2818:	02f70863          	beq	a4,a5,2848 <OS_Sched+0xac>
#if OS_TASK_PROFILE_EN > 0u
                OSTCBHighRdy->OSTCBCtxSwCtr++;         /* Inc. # of context switches to this task      */
    281c:	000287b7          	lui	a5,0x28
    2820:	8247a783          	lw	a5,-2012(a5) # 27824 <OSTCBHighRdy>
    2824:	0407a703          	lw	a4,64(a5)
    2828:	00170713          	add	a4,a4,1
    282c:	04e7a023          	sw	a4,64(a5)
#endif
                OSCtxSwCtr++;                          /* Increment context switch counter             */
    2830:	000277b7          	lui	a5,0x27
    2834:	7f07a783          	lw	a5,2032(a5) # 277f0 <OSCtxSwCtr>
    2838:	00178713          	add	a4,a5,1
    283c:	000277b7          	lui	a5,0x27
    2840:	7ee7a823          	sw	a4,2032(a5) # 277f0 <OSCtxSwCtr>
#if defined(OS_TLS_TBL_SIZE) && (OS_TLS_TBL_SIZE > 0u)
                OS_TLS_TaskSw();
#endif
#endif

                OS_TASK_SW();                          /* Perform a context switch                     */
    2844:	4d8080ef          	jal	ad1c <OSCtxSw>
    2848:	fec42783          	lw	a5,-20(s0)
    284c:	fef42223          	sw	a5,-28(s0)
    ABBOTTS_LAKE_SET_CSR(ABBOTTS_LAKE_MSTATUS_CSR, context & ABBOTTS_LAKE_MSTATUS_MIE_MASK);
    2850:	fe442783          	lw	a5,-28(s0)
    2854:	0087f793          	and	a5,a5,8
    2858:	3007a073          	csrs	mstatus,a5
}
    285c:	00000013          	nop
            }
        }
    }
    OS_EXIT_CRITICAL();
}
    2860:	00000013          	nop
    2864:	01c12083          	lw	ra,28(sp)
    2868:	01812403          	lw	s0,24(sp)
    286c:	02010113          	add	sp,sp,32
    2870:	00008067          	ret

00002874 <OS_SchedNew>:
*              2) Interrupts are assumed to be disabled when this function is called.
*********************************************************************************************************
*/

static  void  OS_SchedNew (void)
{
    2874:	fe010113          	add	sp,sp,-32
    2878:	00812e23          	sw	s0,28(sp)
    287c:	02010413          	add	s0,sp,32
#if OS_LOWEST_PRIO <= 63u                        /* See if we support up to 64 tasks                   */
    INT8U   y;


    y             = OSUnMapTbl[OSRdyGrp];
    2880:	000287b7          	lui	a5,0x28
    2884:	80d7c783          	lbu	a5,-2035(a5) # 2780d <OSRdyGrp>
    2888:	00078713          	mv	a4,a5
    288c:	000237b7          	lui	a5,0x23
    2890:	f6478793          	add	a5,a5,-156 # 22f64 <OSUnMapTbl>
    2894:	00e787b3          	add	a5,a5,a4
    2898:	0007c783          	lbu	a5,0(a5)
    289c:	fef407a3          	sb	a5,-17(s0)
    OSPrioHighRdy = (INT8U)((y << 3u) + OSUnMapTbl[OSRdyTbl[y]]);
    28a0:	fef44783          	lbu	a5,-17(s0)
    28a4:	00379793          	sll	a5,a5,0x3
    28a8:	0ff7f713          	zext.b	a4,a5
    28ac:	fef44683          	lbu	a3,-17(s0)
    28b0:	000287b7          	lui	a5,0x28
    28b4:	81078793          	add	a5,a5,-2032 # 27810 <OSRdyTbl>
    28b8:	00f687b3          	add	a5,a3,a5
    28bc:	0007c783          	lbu	a5,0(a5)
    28c0:	00078693          	mv	a3,a5
    28c4:	000237b7          	lui	a5,0x23
    28c8:	f6478793          	add	a5,a5,-156 # 22f64 <OSUnMapTbl>
    28cc:	00d787b3          	add	a5,a5,a3
    28d0:	0007c783          	lbu	a5,0(a5)
    28d4:	00f707b3          	add	a5,a4,a5
    28d8:	0ff7f713          	zext.b	a4,a5
    28dc:	000287b7          	lui	a5,0x28
    28e0:	80e78623          	sb	a4,-2036(a5) # 2780c <OSPrioHighRdy>
        OSPrioHighRdy = (INT8U)((y << 4u) + OSUnMapTbl[(*ptbl & 0xFFu)]);
    } else {
        OSPrioHighRdy = (INT8U)((y << 4u) + OSUnMapTbl[(OS_PRIO)(*ptbl >> 8u) & 0xFFu] + 8u);
    }
#endif
}
    28e4:	00000013          	nop
    28e8:	01c12403          	lw	s0,28(sp)
    28ec:	02010113          	add	sp,sp,32
    28f0:	00008067          	ret

000028f4 <OS_StrLen>:
*********************************************************************************************************
*/

#if (OS_EVENT_NAME_EN > 0u) || (OS_FLAG_NAME_EN > 0u) || (OS_MEM_NAME_EN > 0u) || (OS_TASK_NAME_EN > 0u) || (OS_TMR_CFG_NAME_EN > 0u)
INT8U  OS_StrLen (INT8U *psrc)
{
    28f4:	fd010113          	add	sp,sp,-48
    28f8:	02812623          	sw	s0,44(sp)
    28fc:	03010413          	add	s0,sp,48
    2900:	fca42e23          	sw	a0,-36(s0)
    INT8U  len;


#if OS_ARG_CHK_EN > 0u
    if (psrc == (INT8U *)0) {
    2904:	fdc42783          	lw	a5,-36(s0)
    2908:	00079663          	bnez	a5,2914 <OS_StrLen+0x20>
        return (0u);
    290c:	00000793          	li	a5,0
    2910:	0340006f          	j	2944 <OS_StrLen+0x50>
    }
#endif

    len = 0u;
    2914:	fe0407a3          	sb	zero,-17(s0)
    while (*psrc != OS_ASCII_NUL) {
    2918:	01c0006f          	j	2934 <OS_StrLen+0x40>
        psrc++;
    291c:	fdc42783          	lw	a5,-36(s0)
    2920:	00178793          	add	a5,a5,1
    2924:	fcf42e23          	sw	a5,-36(s0)
        len++;
    2928:	fef44783          	lbu	a5,-17(s0)
    292c:	00178793          	add	a5,a5,1
    2930:	fef407a3          	sb	a5,-17(s0)
    while (*psrc != OS_ASCII_NUL) {
    2934:	fdc42783          	lw	a5,-36(s0)
    2938:	0007c783          	lbu	a5,0(a5)
    293c:	fe0790e3          	bnez	a5,291c <OS_StrLen+0x28>
    }
    return (len);
    2940:	fef44783          	lbu	a5,-17(s0)
}
    2944:	00078513          	mv	a0,a5
    2948:	02c12403          	lw	s0,44(sp)
    294c:	03010113          	add	sp,sp,48
    2950:	00008067          	ret

00002954 <OS_TaskIdle>:
*                 power.
*********************************************************************************************************
*/

void  OS_TaskIdle (void *p_arg)
{
    2954:	fd010113          	add	sp,sp,-48
    2958:	02112623          	sw	ra,44(sp)
    295c:	02812423          	sw	s0,40(sp)
    2960:	03010413          	add	s0,sp,48
    2964:	fca42e23          	sw	a0,-36(s0)
#if OS_CRITICAL_METHOD == 3u                     /* Allocate storage for CPU status register           */
    OS_CPU_SR  cpu_sr = 0u;
    2968:	fe042623          	sw	zero,-20(s0)
    ABBOTTS_LAKE_READ_AND_CLR_CSR(ABBOTTS_LAKE_MSTATUS_CSR, context, ABBOTTS_LAKE_MSTATUS_MIE_MASK);
    296c:	00800793          	li	a5,8
    2970:	3007b7f3          	csrrc	a5,mstatus,a5
    2974:	fef42223          	sw	a5,-28(s0)
    return context;
    2978:	fe442783          	lw	a5,-28(s0)
#endif

    (void)p_arg;                                 /* Prevent compiler warning for not using 'p_arg'     */
    for (;;) {
        OS_ENTER_CRITICAL();
    297c:	fef42623          	sw	a5,-20(s0)
        OSIdleCtr++;
    2980:	000287b7          	lui	a5,0x28
    2984:	8187a783          	lw	a5,-2024(a5) # 27818 <OSIdleCtr>
    2988:	00178713          	add	a4,a5,1
    298c:	000287b7          	lui	a5,0x28
    2990:	80e7ac23          	sw	a4,-2024(a5) # 27818 <OSIdleCtr>
    2994:	fec42783          	lw	a5,-20(s0)
    2998:	fef42423          	sw	a5,-24(s0)
    ABBOTTS_LAKE_SET_CSR(ABBOTTS_LAKE_MSTATUS_CSR, context & ABBOTTS_LAKE_MSTATUS_MIE_MASK);
    299c:	fe842783          	lw	a5,-24(s0)
    29a0:	0087f793          	and	a5,a5,8
    29a4:	3007a073          	csrs	mstatus,a5
}
    29a8:	00000013          	nop
        OS_EXIT_CRITICAL();
        OSTaskIdleHook();                        /* Call user definable HOOK                           */
    29ac:	2fc090ef          	jal	bca8 <OSTaskIdleHook>
        OS_ENTER_CRITICAL();
    29b0:	00000013          	nop
    29b4:	fb9ff06f          	j	296c <OS_TaskIdle+0x18>

000029b8 <OS_TaskStat>:
*********************************************************************************************************
*/

#if OS_TASK_STAT_EN > 0u
void  OS_TaskStat (void *p_arg)
{
    29b8:	fc010113          	add	sp,sp,-64
    29bc:	02112e23          	sw	ra,60(sp)
    29c0:	02812c23          	sw	s0,56(sp)
    29c4:	04010413          	add	s0,sp,64
    29c8:	fca42623          	sw	a0,-52(s0)
    INT8S  usage;
#if OS_CRITICAL_METHOD == 3u                     /* Allocate storage for CPU status register           */
    OS_CPU_SR  cpu_sr = 0u;
    29cc:	fe042623          	sw	zero,-20(s0)
#endif



    p_arg = p_arg;                               /* Prevent compiler warning for not using 'p_arg'     */
    while (OSStatRdy == OS_FALSE) {
    29d0:	00c0006f          	j	29dc <OS_TaskStat+0x24>
        OSTimeDly(2u * OS_TICKS_PER_SEC / 10u);  /* Wait until statistic task is ready                 */
    29d4:	0c800513          	li	a0,200
    29d8:	75d060ef          	jal	9934 <OSTimeDly>
    while (OSStatRdy == OS_FALSE) {
    29dc:	000287b7          	lui	a5,0x28
    29e0:	8087c783          	lbu	a5,-2040(a5) # 27808 <OSStatRdy>
    29e4:	fe0788e3          	beqz	a5,29d4 <OS_TaskStat+0x1c>
    }
    OSIdleCtrMax /= 100uL;
    29e8:	000287b7          	lui	a5,0x28
    29ec:	8007a783          	lw	a5,-2048(a5) # 27800 <OSIdleCtrMax>
    29f0:	06400593          	li	a1,100
    29f4:	00078513          	mv	a0,a5
    29f8:	1681f0ef          	jal	21b60 <__hidden___udivsi3>
    29fc:	00050793          	mv	a5,a0
    2a00:	00078713          	mv	a4,a5
    2a04:	000287b7          	lui	a5,0x28
    2a08:	80e7a023          	sw	a4,-2048(a5) # 27800 <OSIdleCtrMax>
    if (OSIdleCtrMax == 0uL) {
    2a0c:	000287b7          	lui	a5,0x28
    2a10:	8007a783          	lw	a5,-2048(a5) # 27800 <OSIdleCtrMax>
    2a14:	00079a63          	bnez	a5,2a28 <OS_TaskStat+0x70>
        OSCPUUsage = 0u;
    2a18:	000277b7          	lui	a5,0x27
    2a1c:	7e078e23          	sb	zero,2044(a5) # 277fc <OSCPUUsage>
#if OS_TASK_SUSPEND_EN > 0u
        (void)OSTaskSuspend(OS_PRIO_SELF);
    2a20:	0ff00513          	li	a0,255
    2a24:	065060ef          	jal	9288 <OSTaskSuspend>
    ABBOTTS_LAKE_READ_AND_CLR_CSR(ABBOTTS_LAKE_MSTATUS_CSR, context, ABBOTTS_LAKE_MSTATUS_MIE_MASK);
    2a28:	00800793          	li	a5,8
    2a2c:	3007b7f3          	csrrc	a5,mstatus,a5
    2a30:	fef42023          	sw	a5,-32(s0)
    return context;
    2a34:	fe042783          	lw	a5,-32(s0)
        for (;;) {
            OSTimeDly(OS_TICKS_PER_SEC);
        }
#endif
    }
    OS_ENTER_CRITICAL();
    2a38:	fef42623          	sw	a5,-20(s0)
    OSIdleCtr = OSIdleCtrMax * 100uL;            /* Set initial CPU usage as 0%                        */
    2a3c:	000287b7          	lui	a5,0x28
    2a40:	8007a703          	lw	a4,-2048(a5) # 27800 <OSIdleCtrMax>
    2a44:	00070793          	mv	a5,a4
    2a48:	00179793          	sll	a5,a5,0x1
    2a4c:	00e787b3          	add	a5,a5,a4
    2a50:	00379793          	sll	a5,a5,0x3
    2a54:	00e787b3          	add	a5,a5,a4
    2a58:	00279793          	sll	a5,a5,0x2
    2a5c:	00078713          	mv	a4,a5
    2a60:	000287b7          	lui	a5,0x28
    2a64:	80e7ac23          	sw	a4,-2024(a5) # 27818 <OSIdleCtr>
    2a68:	fec42783          	lw	a5,-20(s0)
    2a6c:	fef42223          	sw	a5,-28(s0)
    ABBOTTS_LAKE_SET_CSR(ABBOTTS_LAKE_MSTATUS_CSR, context & ABBOTTS_LAKE_MSTATUS_MIE_MASK);
    2a70:	fe442783          	lw	a5,-28(s0)
    2a74:	0087f793          	and	a5,a5,8
    2a78:	3007a073          	csrs	mstatus,a5
}
    2a7c:	00000013          	nop
    OS_EXIT_CRITICAL();
    for (;;) {
        OSTimeDly(1);                            /* Synchronize with clock tick                        */
    2a80:	00100513          	li	a0,1
    2a84:	6b1060ef          	jal	9934 <OSTimeDly>
    ABBOTTS_LAKE_READ_AND_CLR_CSR(ABBOTTS_LAKE_MSTATUS_CSR, context, ABBOTTS_LAKE_MSTATUS_MIE_MASK);
    2a88:	00800793          	li	a5,8
    2a8c:	3007b7f3          	csrrc	a5,mstatus,a5
    2a90:	fcf42823          	sw	a5,-48(s0)
    return context;
    2a94:	fd042783          	lw	a5,-48(s0)

        OS_ENTER_CRITICAL();
    2a98:	fef42623          	sw	a5,-20(s0)
        OSIdleCtr = 0uL;                        /* Reset the idle counter for the next second         */
    2a9c:	000287b7          	lui	a5,0x28
    2aa0:	8007ac23          	sw	zero,-2024(a5) # 27818 <OSIdleCtr>
    2aa4:	fec42783          	lw	a5,-20(s0)
    2aa8:	fcf42a23          	sw	a5,-44(s0)
    ABBOTTS_LAKE_SET_CSR(ABBOTTS_LAKE_MSTATUS_CSR, context & ABBOTTS_LAKE_MSTATUS_MIE_MASK);
    2aac:	fd442783          	lw	a5,-44(s0)
    2ab0:	0087f793          	and	a5,a5,8
    2ab4:	3007a073          	csrs	mstatus,a5
}
    2ab8:	00000013          	nop
        OS_EXIT_CRITICAL();

        OSTimeDly(OS_TICKS_PER_SEC / 10u);       /* Accumulate OSIdleCtr for the next 1/10 second      */
    2abc:	06400513          	li	a0,100
    2ac0:	675060ef          	jal	9934 <OSTimeDly>
    ABBOTTS_LAKE_READ_AND_CLR_CSR(ABBOTTS_LAKE_MSTATUS_CSR, context, ABBOTTS_LAKE_MSTATUS_MIE_MASK);
    2ac4:	00800793          	li	a5,8
    2ac8:	3007b7f3          	csrrc	a5,mstatus,a5
    2acc:	fcf42c23          	sw	a5,-40(s0)
    return context;
    2ad0:	fd842783          	lw	a5,-40(s0)

        OS_ENTER_CRITICAL();
    2ad4:	fef42623          	sw	a5,-20(s0)
        OSIdleCtrRun = OSIdleCtr;                /* Store number of cycles which elapsed while idle    */
    2ad8:	000287b7          	lui	a5,0x28
    2adc:	8187a703          	lw	a4,-2024(a5) # 27818 <OSIdleCtr>
    2ae0:	000287b7          	lui	a5,0x28
    2ae4:	80e7a223          	sw	a4,-2044(a5) # 27804 <OSIdleCtrRun>
    2ae8:	fec42783          	lw	a5,-20(s0)
    2aec:	fcf42e23          	sw	a5,-36(s0)
    ABBOTTS_LAKE_SET_CSR(ABBOTTS_LAKE_MSTATUS_CSR, context & ABBOTTS_LAKE_MSTATUS_MIE_MASK);
    2af0:	fdc42783          	lw	a5,-36(s0)
    2af4:	0087f793          	and	a5,a5,8
    2af8:	3007a073          	csrs	mstatus,a5
}
    2afc:	00000013          	nop
        OS_EXIT_CRITICAL();

        usage            = 100 - (INT8S)(OSIdleCtrRun / OSIdleCtrMax);
    2b00:	000287b7          	lui	a5,0x28
    2b04:	8047a703          	lw	a4,-2044(a5) # 27804 <OSIdleCtrRun>
    2b08:	000287b7          	lui	a5,0x28
    2b0c:	8007a783          	lw	a5,-2048(a5) # 27800 <OSIdleCtrMax>
    2b10:	00078593          	mv	a1,a5
    2b14:	00070513          	mv	a0,a4
    2b18:	0481f0ef          	jal	21b60 <__hidden___udivsi3>
    2b1c:	00050793          	mv	a5,a0
    2b20:	0ff7f793          	zext.b	a5,a5
    2b24:	06400713          	li	a4,100
    2b28:	40f707b3          	sub	a5,a4,a5
    2b2c:	0ff7f793          	zext.b	a5,a5
    2b30:	fef405a3          	sb	a5,-21(s0)
        if (usage >= 0) {                        /* Make sure we don't have a negative percentage      */
    2b34:	feb40783          	lb	a5,-21(s0)
    2b38:	0007ca63          	bltz	a5,2b4c <OS_TaskStat+0x194>
            OSCPUUsage   = (INT8U)usage;
    2b3c:	feb44703          	lbu	a4,-21(s0)
    2b40:	000277b7          	lui	a5,0x27
    2b44:	7ee78e23          	sb	a4,2044(a5) # 277fc <OSCPUUsage>
    2b48:	0300006f          	j	2b78 <OS_TaskStat+0x1c0>
        } else {
            OSCPUUsage   = 0u;
    2b4c:	000277b7          	lui	a5,0x27
    2b50:	7e078e23          	sb	zero,2044(a5) # 277fc <OSCPUUsage>
            OSIdleCtrMax = OSIdleCtrRun / 100uL; /* Update max counter value to current one            */
    2b54:	000287b7          	lui	a5,0x28
    2b58:	8047a783          	lw	a5,-2044(a5) # 27804 <OSIdleCtrRun>
    2b5c:	06400593          	li	a1,100
    2b60:	00078513          	mv	a0,a5
    2b64:	7fd1e0ef          	jal	21b60 <__hidden___udivsi3>
    2b68:	00050793          	mv	a5,a0
    2b6c:	00078713          	mv	a4,a5
    2b70:	000287b7          	lui	a5,0x28
    2b74:	80e7a023          	sw	a4,-2048(a5) # 27800 <OSIdleCtrMax>
        }

        OSTaskStatHook();                        /* Invoke user definable hook                         */
    2b78:	0c0090ef          	jal	bc38 <OSTaskStatHook>
#if (OS_TASK_STAT_STK_CHK_EN > 0u) && (OS_TASK_CREATE_EXT_EN > 0u)
        OS_TaskStatStkChk();                     /* Check the stacks for each task                     */
    2b7c:	008000ef          	jal	2b84 <OS_TaskStatStkChk>
        OSTimeDly(1);                            /* Synchronize with clock tick                        */
    2b80:	f01ff06f          	j	2a80 <OS_TaskStat+0xc8>

00002b84 <OS_TaskStatStkChk>:
*********************************************************************************************************
*/

#if (OS_TASK_STAT_STK_CHK_EN > 0u) && (OS_TASK_CREATE_EXT_EN > 0u)
void  OS_TaskStatStkChk (void)
{
    2b84:	fe010113          	add	sp,sp,-32
    2b88:	00112e23          	sw	ra,28(sp)
    2b8c:	00812c23          	sw	s0,24(sp)
    2b90:	02010413          	add	s0,sp,32
    OS_STK_DATA  stk_data;
    INT8U        err;
    INT8U        prio;


    for (prio = 0u; prio <= OS_TASK_IDLE_PRIO; prio++) {
    2b94:	fe0407a3          	sb	zero,-17(s0)
    2b98:	0900006f          	j	2c28 <OS_TaskStatStkChk+0xa4>
        err = OSTaskStkChk(prio, &stk_data);
    2b9c:	fe040713          	add	a4,s0,-32
    2ba0:	fef44783          	lbu	a5,-17(s0)
    2ba4:	00070593          	mv	a1,a4
    2ba8:	00078513          	mv	a0,a5
    2bac:	524060ef          	jal	90d0 <OSTaskStkChk>
    2bb0:	00050793          	mv	a5,a0
    2bb4:	fef40723          	sb	a5,-18(s0)
        if (err == OS_ERR_NONE) {
    2bb8:	fee44783          	lbu	a5,-18(s0)
    2bbc:	06079063          	bnez	a5,2c1c <OS_TaskStatStkChk+0x98>
            ptcb = OSTCBPrioTbl[prio];
    2bc0:	fef44783          	lbu	a5,-17(s0)
    2bc4:	0002d737          	lui	a4,0x2d
    2bc8:	fb870713          	add	a4,a4,-72 # 2cfb8 <OSTCBPrioTbl>
    2bcc:	00279793          	sll	a5,a5,0x2
    2bd0:	00f707b3          	add	a5,a4,a5
    2bd4:	0007a783          	lw	a5,0(a5)
    2bd8:	fef42423          	sw	a5,-24(s0)
            if (ptcb != (OS_TCB *)0) {                               /* Make sure task 'ptcb' is ...   */
    2bdc:	fe842783          	lw	a5,-24(s0)
    2be0:	02078e63          	beqz	a5,2c1c <OS_TaskStatStkChk+0x98>
                if (ptcb != OS_TCB_RESERVED) {                       /* ... still valid.               */
    2be4:	fe842703          	lw	a4,-24(s0)
    2be8:	00100793          	li	a5,1
    2bec:	02f70863          	beq	a4,a5,2c1c <OS_TaskStatStkChk+0x98>
#if OS_TASK_PROFILE_EN > 0u
                    #if OS_STK_GROWTH == 1u
                    ptcb->OSTCBStkBase = ptcb->OSTCBStkBottom + ptcb->OSTCBStkSize;
    2bf0:	fe842783          	lw	a5,-24(s0)
    2bf4:	0087a703          	lw	a4,8(a5)
    2bf8:	fe842783          	lw	a5,-24(s0)
    2bfc:	00c7a783          	lw	a5,12(a5)
    2c00:	00279793          	sll	a5,a5,0x2
    2c04:	00f70733          	add	a4,a4,a5
    2c08:	fe842783          	lw	a5,-24(s0)
    2c0c:	04e7a623          	sw	a4,76(a5)
                    #else
                    ptcb->OSTCBStkBase = ptcb->OSTCBStkBottom - ptcb->OSTCBStkSize;
                    #endif
                    ptcb->OSTCBStkUsed = stk_data.OSUsed;            /* Store number of entries used   */
    2c10:	fe442703          	lw	a4,-28(s0)
    2c14:	fe842783          	lw	a5,-24(s0)
    2c18:	04e7a823          	sw	a4,80(a5)
    for (prio = 0u; prio <= OS_TASK_IDLE_PRIO; prio++) {
    2c1c:	fef44783          	lbu	a5,-17(s0)
    2c20:	00178793          	add	a5,a5,1
    2c24:	fef407a3          	sb	a5,-17(s0)
    2c28:	fef44703          	lbu	a4,-17(s0)
    2c2c:	01400793          	li	a5,20
    2c30:	f6e7f6e3          	bgeu	a5,a4,2b9c <OS_TaskStatStkChk+0x18>
#endif
                }
            }
        }
    }
}
    2c34:	00000013          	nop
    2c38:	00000013          	nop
    2c3c:	01c12083          	lw	ra,28(sp)
    2c40:	01812403          	lw	s0,24(sp)
    2c44:	02010113          	add	sp,sp,32
    2c48:	00008067          	ret

00002c4c <OS_TCBInit>:
                   OS_STK  *pbos,
                   INT16U   id,
                   INT32U   stk_size,
                   void    *pext,
                   INT16U   opt)
{
    2c4c:	fa010113          	add	sp,sp,-96
    2c50:	04112e23          	sw	ra,92(sp)
    2c54:	04812c23          	sw	s0,88(sp)
    2c58:	06010413          	add	s0,sp,96
    2c5c:	fab42c23          	sw	a1,-72(s0)
    2c60:	fac42a23          	sw	a2,-76(s0)
    2c64:	fae42823          	sw	a4,-80(s0)
    2c68:	faf42623          	sw	a5,-84(s0)
    2c6c:	00080713          	mv	a4,a6
    2c70:	00050793          	mv	a5,a0
    2c74:	faf40fa3          	sb	a5,-65(s0)
    2c78:	00068793          	mv	a5,a3
    2c7c:	faf41e23          	sh	a5,-68(s0)
    2c80:	00070793          	mv	a5,a4
    2c84:	faf41523          	sh	a5,-86(s0)
    OS_TCB    *ptcb;
#if OS_CRITICAL_METHOD == 3u                               /* Allocate storage for CPU status register */
    OS_CPU_SR  cpu_sr = 0u;
    2c88:	fe042423          	sw	zero,-24(s0)
    ABBOTTS_LAKE_READ_AND_CLR_CSR(ABBOTTS_LAKE_MSTATUS_CSR, context, ABBOTTS_LAKE_MSTATUS_MIE_MASK);
    2c8c:	00800793          	li	a5,8
    2c90:	3007b7f3          	csrrc	a5,mstatus,a5
    2c94:	fef42023          	sw	a5,-32(s0)
    return context;
    2c98:	fe042783          	lw	a5,-32(s0)
    INT8U      j;
#endif
#endif


    OS_ENTER_CRITICAL();
    2c9c:	fef42423          	sw	a5,-24(s0)
    ptcb = OSTCBFreeList;                                  /* Get a free TCB from the free TCB list    */
    2ca0:	000287b7          	lui	a5,0x28
    2ca4:	8207a783          	lw	a5,-2016(a5) # 27820 <OSTCBFreeList>
    2ca8:	fef42223          	sw	a5,-28(s0)
    if (ptcb != (OS_TCB *)0) {
    2cac:	fe442783          	lw	a5,-28(s0)
    2cb0:	2e078463          	beqz	a5,2f98 <OS_TCBInit+0x34c>
        OSTCBFreeList            = ptcb->OSTCBNext;        /* Update pointer to free TCB list          */
    2cb4:	fe442783          	lw	a5,-28(s0)
    2cb8:	0147a703          	lw	a4,20(a5)
    2cbc:	000287b7          	lui	a5,0x28
    2cc0:	82e7a023          	sw	a4,-2016(a5) # 27820 <OSTCBFreeList>
    2cc4:	fe842783          	lw	a5,-24(s0)
    2cc8:	fcf42e23          	sw	a5,-36(s0)
    ABBOTTS_LAKE_SET_CSR(ABBOTTS_LAKE_MSTATUS_CSR, context & ABBOTTS_LAKE_MSTATUS_MIE_MASK);
    2ccc:	fdc42783          	lw	a5,-36(s0)
    2cd0:	0087f793          	and	a5,a5,8
    2cd4:	3007a073          	csrs	mstatus,a5
}
    2cd8:	00000013          	nop
        OS_EXIT_CRITICAL();
        ptcb->OSTCBStkPtr        = ptos;                   /* Load Stack pointer in TCB                */
    2cdc:	fe442783          	lw	a5,-28(s0)
    2ce0:	fb842703          	lw	a4,-72(s0)
    2ce4:	00e7a023          	sw	a4,0(a5)
        ptcb->OSTCBPrio          = prio;                   /* Load task priority into TCB              */
    2ce8:	fe442783          	lw	a5,-28(s0)
    2cec:	fbf44703          	lbu	a4,-65(s0)
    2cf0:	02e78d23          	sb	a4,58(a5)
        ptcb->OSTCBStat          = OS_STAT_RDY;            /* Task is ready to run                     */
    2cf4:	fe442783          	lw	a5,-28(s0)
    2cf8:	02078c23          	sb	zero,56(a5)
        ptcb->OSTCBStatPend      = OS_STAT_PEND_OK;        /* Clear pend status                        */
    2cfc:	fe442783          	lw	a5,-28(s0)
    2d00:	02078ca3          	sb	zero,57(a5)
        ptcb->OSTCBDly           = 0u;                     /* Task is not delayed                      */
    2d04:	fe442783          	lw	a5,-28(s0)
    2d08:	0207aa23          	sw	zero,52(a5)

#if OS_TASK_CREATE_EXT_EN > 0u
        ptcb->OSTCBExtPtr        = pext;                   /* Store pointer to TCB extension           */
    2d0c:	fe442783          	lw	a5,-28(s0)
    2d10:	fac42703          	lw	a4,-84(s0)
    2d14:	00e7a223          	sw	a4,4(a5)
        ptcb->OSTCBStkSize       = stk_size;               /* Store stack size                         */
    2d18:	fe442783          	lw	a5,-28(s0)
    2d1c:	fb042703          	lw	a4,-80(s0)
    2d20:	00e7a623          	sw	a4,12(a5)
        ptcb->OSTCBStkBottom     = pbos;                   /* Store pointer to bottom of stack         */
    2d24:	fe442783          	lw	a5,-28(s0)
    2d28:	fb442703          	lw	a4,-76(s0)
    2d2c:	00e7a423          	sw	a4,8(a5)
        ptcb->OSTCBOpt           = opt;                    /* Store task options                       */
    2d30:	fe442783          	lw	a5,-28(s0)
    2d34:	faa45703          	lhu	a4,-86(s0)
    2d38:	00e79823          	sh	a4,16(a5)
        ptcb->OSTCBId            = id;                     /* Store task ID                            */
    2d3c:	fe442783          	lw	a5,-28(s0)
    2d40:	fbc45703          	lhu	a4,-68(s0)
    2d44:	00e79923          	sh	a4,18(a5)
        opt                      = opt;
        id                       = id;
#endif

#if OS_TASK_DEL_EN > 0u
        ptcb->OSTCBDelReq        = OS_ERR_NONE;
    2d48:	fe442783          	lw	a5,-28(s0)
    2d4c:	02078fa3          	sb	zero,63(a5)
#endif

#if OS_LOWEST_PRIO <= 63u                                         /* Pre-compute X, Y                  */
        ptcb->OSTCBY             = (INT8U)(prio >> 3u);
    2d50:	fbf44783          	lbu	a5,-65(s0)
    2d54:	0037d793          	srl	a5,a5,0x3
    2d58:	0ff7f713          	zext.b	a4,a5
    2d5c:	fe442783          	lw	a5,-28(s0)
    2d60:	02e78e23          	sb	a4,60(a5)
        ptcb->OSTCBX             = (INT8U)(prio & 0x07u);
    2d64:	fbf44783          	lbu	a5,-65(s0)
    2d68:	0077f793          	and	a5,a5,7
    2d6c:	0ff7f713          	zext.b	a4,a5
    2d70:	fe442783          	lw	a5,-28(s0)
    2d74:	02e78da3          	sb	a4,59(a5)
#else                                                             /* Pre-compute X, Y                  */
        ptcb->OSTCBY             = (INT8U)((INT8U)(prio >> 4u) & 0xFFu);
        ptcb->OSTCBX             = (INT8U) (prio & 0x0Fu);
#endif
                                                                  /* Pre-compute BitX and BitY         */
        ptcb->OSTCBBitY          = (OS_PRIO)(1uL << ptcb->OSTCBY);
    2d78:	fe442783          	lw	a5,-28(s0)
    2d7c:	03c7c783          	lbu	a5,60(a5)
    2d80:	00078713          	mv	a4,a5
    2d84:	00100793          	li	a5,1
    2d88:	00e797b3          	sll	a5,a5,a4
    2d8c:	0ff7f713          	zext.b	a4,a5
    2d90:	fe442783          	lw	a5,-28(s0)
    2d94:	02e78f23          	sb	a4,62(a5)
        ptcb->OSTCBBitX          = (OS_PRIO)(1uL << ptcb->OSTCBX);
    2d98:	fe442783          	lw	a5,-28(s0)
    2d9c:	03b7c783          	lbu	a5,59(a5)
    2da0:	00078713          	mv	a4,a5
    2da4:	00100793          	li	a5,1
    2da8:	00e797b3          	sll	a5,a5,a4
    2dac:	0ff7f713          	zext.b	a4,a5
    2db0:	fe442783          	lw	a5,-28(s0)
    2db4:	02e78ea3          	sb	a4,61(a5)

#if (OS_EVENT_EN)
        ptcb->OSTCBEventPtr      = (OS_EVENT  *)0;         /* Task is not pending on an  event         */
    2db8:	fe442783          	lw	a5,-28(s0)
    2dbc:	0007ae23          	sw	zero,28(a5)
#if (OS_EVENT_MULTI_EN > 0u)
        ptcb->OSTCBEventMultiPtr = (OS_EVENT **)0;         /* Task is not pending on any events        */
    2dc0:	fe442783          	lw	a5,-28(s0)
    2dc4:	0207a023          	sw	zero,32(a5)
        ptcb->OSTCBEventMultiRdy = (OS_EVENT  *)0;         /* No events readied for Multipend          */
    2dc8:	fe442783          	lw	a5,-28(s0)
    2dcc:	0207a223          	sw	zero,36(a5)
#endif
#endif

#if (OS_FLAG_EN > 0u) && (OS_MAX_FLAGS > 0u) && (OS_TASK_DEL_EN > 0u)
        ptcb->OSTCBFlagNode      = (OS_FLAG_NODE *)0;      /* Task is not pending on an event flag     */
    2dd0:	fe442783          	lw	a5,-28(s0)
    2dd4:	0207a623          	sw	zero,44(a5)
#endif

#if (OS_MBOX_EN > 0u) || ((OS_Q_EN > 0u) && (OS_MAX_QS > 0u))
        ptcb->OSTCBMsg           = (void *)0;              /* No message received                      */
    2dd8:	fe442783          	lw	a5,-28(s0)
    2ddc:	0207a423          	sw	zero,40(a5)
#endif

#if OS_TASK_PROFILE_EN > 0u
        ptcb->OSTCBCtxSwCtr      = 0uL;                    /* Initialize profiling variables           */
    2de0:	fe442783          	lw	a5,-28(s0)
    2de4:	0407a023          	sw	zero,64(a5)
        ptcb->OSTCBCyclesStart   = 0uL;
    2de8:	fe442783          	lw	a5,-28(s0)
    2dec:	0407a423          	sw	zero,72(a5)
        ptcb->OSTCBCyclesTot     = 0uL;
    2df0:	fe442783          	lw	a5,-28(s0)
    2df4:	0407a223          	sw	zero,68(a5)
        ptcb->OSTCBStkBase       = (OS_STK *)0;
    2df8:	fe442783          	lw	a5,-28(s0)
    2dfc:	0407a623          	sw	zero,76(a5)
        ptcb->OSTCBStkUsed       = 0uL;
    2e00:	fe442783          	lw	a5,-28(s0)
    2e04:	0407a823          	sw	zero,80(a5)
#endif

#if OS_TASK_NAME_EN > 0u
        ptcb->OSTCBTaskName      = (INT8U *)(void *)"?";
    2e08:	fe442783          	lw	a5,-28(s0)
    2e0c:	00023737          	lui	a4,0x23
    2e10:	06470713          	add	a4,a4,100 # 23064 <OSUnMapTbl+0x100>
    2e14:	04e7aa23          	sw	a4,84(a5)
#endif

#if OS_TASK_REG_TBL_SIZE > 0u                              /* Initialize the task variables            */
        for (i = 0u; i < OS_TASK_REG_TBL_SIZE; i++) {
    2e18:	fe0407a3          	sb	zero,-17(s0)
    2e1c:	0280006f          	j	2e44 <OS_TCBInit+0x1f8>
            ptcb->OSTCBRegTbl[i] = 0u;
    2e20:	fef44783          	lbu	a5,-17(s0)
    2e24:	fe442703          	lw	a4,-28(s0)
    2e28:	01478793          	add	a5,a5,20
    2e2c:	00279793          	sll	a5,a5,0x2
    2e30:	00f707b3          	add	a5,a4,a5
    2e34:	0007a423          	sw	zero,8(a5)
        for (i = 0u; i < OS_TASK_REG_TBL_SIZE; i++) {
    2e38:	fef44783          	lbu	a5,-17(s0)
    2e3c:	00178793          	add	a5,a5,1
    2e40:	fef407a3          	sb	a5,-17(s0)
    2e44:	fef44703          	lbu	a4,-17(s0)
    2e48:	01f00793          	li	a5,31
    2e4c:	fce7fae3          	bgeu	a5,a4,2e20 <OS_TCBInit+0x1d4>
        }
#endif

        OSTCBInitHook(ptcb);
    2e50:	fe442503          	lw	a0,-28(s0)
    2e54:	691080ef          	jal	bce4 <OSTCBInitHook>
    ABBOTTS_LAKE_READ_AND_CLR_CSR(ABBOTTS_LAKE_MSTATUS_CSR, context, ABBOTTS_LAKE_MSTATUS_MIE_MASK);
    2e58:	00800793          	li	a5,8
    2e5c:	3007b7f3          	csrrc	a5,mstatus,a5
    2e60:	fcf42823          	sw	a5,-48(s0)
    return context;
    2e64:	fd042783          	lw	a5,-48(s0)

        OS_ENTER_CRITICAL();
    2e68:	fef42423          	sw	a5,-24(s0)
        OSTCBPrioTbl[prio] = ptcb;
    2e6c:	fbf44783          	lbu	a5,-65(s0)
    2e70:	0002d737          	lui	a4,0x2d
    2e74:	fb870713          	add	a4,a4,-72 # 2cfb8 <OSTCBPrioTbl>
    2e78:	00279793          	sll	a5,a5,0x2
    2e7c:	00f707b3          	add	a5,a4,a5
    2e80:	fe442703          	lw	a4,-28(s0)
    2e84:	00e7a023          	sw	a4,0(a5)
    2e88:	fe842783          	lw	a5,-24(s0)
    2e8c:	fcf42a23          	sw	a5,-44(s0)
    ABBOTTS_LAKE_SET_CSR(ABBOTTS_LAKE_MSTATUS_CSR, context & ABBOTTS_LAKE_MSTATUS_MIE_MASK);
    2e90:	fd442783          	lw	a5,-44(s0)
    2e94:	0087f793          	and	a5,a5,8
    2e98:	3007a073          	csrs	mstatus,a5
}
    2e9c:	00000013          	nop
        OS_EXIT_CRITICAL();

        OSTaskCreateHook(ptcb);                            /* Call user defined hook                   */
    2ea0:	fe442503          	lw	a0,-28(s0)
    2ea4:	539080ef          	jal	bbdc <OSTaskCreateHook>
    ABBOTTS_LAKE_READ_AND_CLR_CSR(ABBOTTS_LAKE_MSTATUS_CSR, context, ABBOTTS_LAKE_MSTATUS_MIE_MASK);
    2ea8:	00800793          	li	a5,8
    2eac:	3007b7f3          	csrrc	a5,mstatus,a5
    2eb0:	fcf42c23          	sw	a5,-40(s0)
    return context;
    2eb4:	fd842783          	lw	a5,-40(s0)
        }
        OS_TLS_TaskCreate(ptcb);                           /* Call TLS hook                            */
#endif
#endif

        OS_ENTER_CRITICAL();
    2eb8:	fef42423          	sw	a5,-24(s0)
        ptcb->OSTCBNext = OSTCBList;                       /* Link into TCB chain                      */
    2ebc:	000287b7          	lui	a5,0x28
    2ec0:	8287a703          	lw	a4,-2008(a5) # 27828 <OSTCBList>
    2ec4:	fe442783          	lw	a5,-28(s0)
    2ec8:	00e7aa23          	sw	a4,20(a5)
        ptcb->OSTCBPrev = (OS_TCB *)0;
    2ecc:	fe442783          	lw	a5,-28(s0)
    2ed0:	0007ac23          	sw	zero,24(a5)
        if (OSTCBList != (OS_TCB *)0) {
    2ed4:	000287b7          	lui	a5,0x28
    2ed8:	8287a783          	lw	a5,-2008(a5) # 27828 <OSTCBList>
    2edc:	00078a63          	beqz	a5,2ef0 <OS_TCBInit+0x2a4>
            OSTCBList->OSTCBPrev = ptcb;
    2ee0:	000287b7          	lui	a5,0x28
    2ee4:	8287a783          	lw	a5,-2008(a5) # 27828 <OSTCBList>
    2ee8:	fe442703          	lw	a4,-28(s0)
    2eec:	00e7ac23          	sw	a4,24(a5)
        }
        OSTCBList               = ptcb;
    2ef0:	000287b7          	lui	a5,0x28
    2ef4:	fe442703          	lw	a4,-28(s0)
    2ef8:	82e7a423          	sw	a4,-2008(a5) # 27828 <OSTCBList>
        OSRdyGrp               |= ptcb->OSTCBBitY;         /* Make task ready to run                   */
    2efc:	fe442783          	lw	a5,-28(s0)
    2f00:	03e7c703          	lbu	a4,62(a5)
    2f04:	000287b7          	lui	a5,0x28
    2f08:	80d7c783          	lbu	a5,-2035(a5) # 2780d <OSRdyGrp>
    2f0c:	00f767b3          	or	a5,a4,a5
    2f10:	0ff7f713          	zext.b	a4,a5
    2f14:	000287b7          	lui	a5,0x28
    2f18:	80e786a3          	sb	a4,-2035(a5) # 2780d <OSRdyGrp>
        OSRdyTbl[ptcb->OSTCBY] |= ptcb->OSTCBBitX;
    2f1c:	fe442783          	lw	a5,-28(s0)
    2f20:	03c7c783          	lbu	a5,60(a5)
    2f24:	00078713          	mv	a4,a5
    2f28:	000287b7          	lui	a5,0x28
    2f2c:	81078793          	add	a5,a5,-2032 # 27810 <OSRdyTbl>
    2f30:	00f707b3          	add	a5,a4,a5
    2f34:	0007c703          	lbu	a4,0(a5)
    2f38:	fe442783          	lw	a5,-28(s0)
    2f3c:	03d7c783          	lbu	a5,61(a5)
    2f40:	fe442683          	lw	a3,-28(s0)
    2f44:	03c6c683          	lbu	a3,60(a3)
    2f48:	00f767b3          	or	a5,a4,a5
    2f4c:	0ff7f713          	zext.b	a4,a5
    2f50:	000287b7          	lui	a5,0x28
    2f54:	81078793          	add	a5,a5,-2032 # 27810 <OSRdyTbl>
    2f58:	00f687b3          	add	a5,a3,a5
    2f5c:	00e78023          	sb	a4,0(a5)
        OSTaskCtr++;                                       /* Increment the #tasks counter             */
    2f60:	000287b7          	lui	a5,0x28
    2f64:	8147c783          	lbu	a5,-2028(a5) # 27814 <OSTaskCtr>
    2f68:	00178793          	add	a5,a5,1
    2f6c:	0ff7f713          	zext.b	a4,a5
    2f70:	000287b7          	lui	a5,0x28
    2f74:	80e78a23          	sb	a4,-2028(a5) # 27814 <OSTaskCtr>
    2f78:	fe842783          	lw	a5,-24(s0)
    2f7c:	fcf42623          	sw	a5,-52(s0)
    ABBOTTS_LAKE_SET_CSR(ABBOTTS_LAKE_MSTATUS_CSR, context & ABBOTTS_LAKE_MSTATUS_MIE_MASK);
    2f80:	fcc42783          	lw	a5,-52(s0)
    2f84:	0087f793          	and	a5,a5,8
    2f88:	3007a073          	csrs	mstatus,a5
}
    2f8c:	00000013          	nop
        OS_TRACE_TASK_READY(ptcb);
        OS_EXIT_CRITICAL();
        return (OS_ERR_NONE);
    2f90:	00000793          	li	a5,0
    2f94:	0200006f          	j	2fb4 <OS_TCBInit+0x368>
    2f98:	fe842783          	lw	a5,-24(s0)
    2f9c:	fcf42423          	sw	a5,-56(s0)
    ABBOTTS_LAKE_SET_CSR(ABBOTTS_LAKE_MSTATUS_CSR, context & ABBOTTS_LAKE_MSTATUS_MIE_MASK);
    2fa0:	fc842783          	lw	a5,-56(s0)
    2fa4:	0087f793          	and	a5,a5,8
    2fa8:	3007a073          	csrs	mstatus,a5
}
    2fac:	00000013          	nop
    }
    OS_EXIT_CRITICAL();
    return (OS_ERR_TASK_NO_MORE_TCB);
    2fb0:	04200793          	li	a5,66
}
    2fb4:	00078513          	mv	a0,a5
    2fb8:	05c12083          	lw	ra,92(sp)
    2fbc:	05812403          	lw	s0,88(sp)
    2fc0:	06010113          	add	sp,sp,96
    2fc4:	00008067          	ret

00002fc8 <OSDebugInit>:
*********************************************************************************************************
*/

#if OS_DEBUG_EN > 0u
void  OSDebugInit (void)
{
    2fc8:	fe010113          	add	sp,sp,-32
    2fcc:	00812e23          	sw	s0,28(sp)
    2fd0:	02010413          	add	s0,sp,32
    void  const  *ptemp;


    ptemp = (void const *)&OSDebugEn;
    2fd4:	000247b7          	lui	a5,0x24
    2fd8:	f5078793          	add	a5,a5,-176 # 23f50 <OSDebugEn>
    2fdc:	fef42623          	sw	a5,-20(s0)

    ptemp = (void const *)&OSEndiannessTest;
    2fe0:	000247b7          	lui	a5,0x24
    2fe4:	f5478793          	add	a5,a5,-172 # 23f54 <OSEndiannessTest>
    2fe8:	fef42623          	sw	a5,-20(s0)

    ptemp = (void const *)&OSEventMax;
    2fec:	000247b7          	lui	a5,0x24
    2ff0:	f5a78793          	add	a5,a5,-166 # 23f5a <OSEventMax>
    2ff4:	fef42623          	sw	a5,-20(s0)
    ptemp = (void const *)&OSEventNameEn;
    2ff8:	000247b7          	lui	a5,0x24
    2ffc:	f5c78793          	add	a5,a5,-164 # 23f5c <OSEventNameEn>
    3000:	fef42623          	sw	a5,-20(s0)
    ptemp = (void const *)&OSEventEn;
    3004:	000247b7          	lui	a5,0x24
    3008:	f5878793          	add	a5,a5,-168 # 23f58 <OSEventEn>
    300c:	fef42623          	sw	a5,-20(s0)
    ptemp = (void const *)&OSEventSize;
    3010:	000247b7          	lui	a5,0x24
    3014:	f5e78793          	add	a5,a5,-162 # 23f5e <OSEventSize>
    3018:	fef42623          	sw	a5,-20(s0)
    ptemp = (void const *)&OSEventTblSize;
    301c:	000247b7          	lui	a5,0x24
    3020:	f6078793          	add	a5,a5,-160 # 23f60 <OSEventTblSize>
    3024:	fef42623          	sw	a5,-20(s0)
    ptemp = (void const *)&OSEventMultiEn;
    3028:	000247b7          	lui	a5,0x24
    302c:	f6278793          	add	a5,a5,-158 # 23f62 <OSEventMultiEn>
    3030:	fef42623          	sw	a5,-20(s0)

    ptemp = (void const *)&OSFlagEn;
    3034:	000247b7          	lui	a5,0x24
    3038:	f6478793          	add	a5,a5,-156 # 23f64 <OSFlagEn>
    303c:	fef42623          	sw	a5,-20(s0)
    ptemp = (void const *)&OSFlagGrpSize;
    3040:	000247b7          	lui	a5,0x24
    3044:	f6678793          	add	a5,a5,-154 # 23f66 <OSFlagGrpSize>
    3048:	fef42623          	sw	a5,-20(s0)
    ptemp = (void const *)&OSFlagNodeSize;
    304c:	000247b7          	lui	a5,0x24
    3050:	f6878793          	add	a5,a5,-152 # 23f68 <OSFlagNodeSize>
    3054:	fef42623          	sw	a5,-20(s0)
    ptemp = (void const *)&OSFlagWidth;
    3058:	000247b7          	lui	a5,0x24
    305c:	f6a78793          	add	a5,a5,-150 # 23f6a <OSFlagWidth>
    3060:	fef42623          	sw	a5,-20(s0)
    ptemp = (void const *)&OSFlagMax;
    3064:	000247b7          	lui	a5,0x24
    3068:	f6c78793          	add	a5,a5,-148 # 23f6c <OSFlagMax>
    306c:	fef42623          	sw	a5,-20(s0)
    ptemp = (void const *)&OSFlagNameEn;
    3070:	000247b7          	lui	a5,0x24
    3074:	f6e78793          	add	a5,a5,-146 # 23f6e <OSFlagNameEn>
    3078:	fef42623          	sw	a5,-20(s0)

    ptemp = (void const *)&OSLowestPrio;
    307c:	000247b7          	lui	a5,0x24
    3080:	f7078793          	add	a5,a5,-144 # 23f70 <OSLowestPrio>
    3084:	fef42623          	sw	a5,-20(s0)

    ptemp = (void const *)&OSMboxEn;
    3088:	000247b7          	lui	a5,0x24
    308c:	f7278793          	add	a5,a5,-142 # 23f72 <OSMboxEn>
    3090:	fef42623          	sw	a5,-20(s0)

    ptemp = (void const *)&OSMemEn;
    3094:	000247b7          	lui	a5,0x24
    3098:	f7478793          	add	a5,a5,-140 # 23f74 <OSMemEn>
    309c:	fef42623          	sw	a5,-20(s0)
    ptemp = (void const *)&OSMemMax;
    30a0:	000247b7          	lui	a5,0x24
    30a4:	f7678793          	add	a5,a5,-138 # 23f76 <OSMemMax>
    30a8:	fef42623          	sw	a5,-20(s0)
    ptemp = (void const *)&OSMemNameEn;
    30ac:	000247b7          	lui	a5,0x24
